ARM GAS  C:\Users\laure\AppData\Local\Temp\ccgfD1R7.s 			page 1


   1              		.syntax unified
   2              		.cpu cortex-m3
   3              		.fpu softvfp
   4              		.eabi_attribute 20, 1
   5              		.eabi_attribute 21, 1
   6              		.eabi_attribute 23, 3
   7              		.eabi_attribute 24, 1
   8              		.eabi_attribute 25, 1
   9              		.eabi_attribute 26, 1
  10              		.eabi_attribute 30, 1
  11              		.eabi_attribute 34, 1
  12              		.eabi_attribute 18, 4
  13              		.thumb
  14              		.syntax unified
  15              		.file	"main.c"
  16              		.text
  17              	.Ltext0:
  18              		.cfi_sections	.debug_frame
  19              		.section	.text.SPI_Ready,"ax",%progbits
  20              		.align	2
  21              		.thumb
  22              		.thumb_func
  23              		.type	SPI_Ready, %function
  24              	SPI_Ready:
  25              	.LFB72:
  26              		.file 1 "main.c"
   1:main.c        **** /* ========================================
   2:main.c        ****  *
   3:main.c        ****  * Copyright YOUR COMPANY, THE YEAR
   4:main.c        ****  * All Rights Reserved
   5:main.c        ****  * UNPUBLISHED, LICENSED SOFTWARE.
   6:main.c        ****  *
   7:main.c        ****  * CONFIDENTIAL AND PROPRIETARY INFORMATION
   8:main.c        ****  * WHICH IS THE PROPERTY OF your company.
   9:main.c        ****  *
  10:main.c        ****  * ========================================
  11:main.c        **** */
  12:main.c        **** #include "project.h"
  13:main.c        **** #include "..\Schakelklok.cydsn\Schakelklok_types.h"
  14:main.c        **** 
  15:main.c        **** 
  16:main.c        **** 
  17:main.c        **** #define LCD_WIDTH   160 //LCD width
  18:main.c        **** #define LCD_HEIGHT  128 //LCD height
  19:main.c        **** // x2 bytes per pixel is around 40Mb of data
  20:main.c        **** #define DC_DATA 1
  21:main.c        **** #define DC_COMMAND 0
  22:main.c        **** 
  23:main.c        **** #define SPI_READY 1
  24:main.c        **** 
  25:main.c        **** 
  26:main.c        **** 
  27:main.c        **** void LCD_WriteData_Byte(UBYTE da); 
  28:main.c        **** void LCD_WriteData_Word(UWORD da);
  29:main.c        **** void LCD_WriteReg(UBYTE da);
  30:main.c        **** static void LCD_DC_Setmode(uint8_t mode);
  31:main.c        **** 
ARM GAS  C:\Users\laure\AppData\Local\Temp\ccgfD1R7.s 			page 2


  32:main.c        **** void LCD_SetCursor(UWORD x1, UWORD y1, UWORD x2,UWORD y2);
  33:main.c        **** void LCD_SetUWORD(UWORD x, UWORD y, UWORD Color);
  34:main.c        **** 
  35:main.c        **** static int SPI_Ready();
  36:main.c        **** 
  37:main.c        **** void LCD_Reset(void);
  38:main.c        **** void LCD_Init(void);
  39:main.c        **** void LCD_Clear(UWORD Color);
  40:main.c        **** void LCD_SetWindow(UWORD Xstart, UWORD Ystart, UWORD Xend, UWORD Yend, UWORD UWORD);
  41:main.c        **** void LCD_TransferBuffer(UWORD Xstart, UWORD Ystart, UWORD Xend, UWORD Yend, UWORD bufferArray[]);
  42:main.c        **** 
  43:main.c        **** int main(void)
  44:main.c        **** {
  45:main.c        ****     CyGlobalIntEnable; /* Enable global interrupts. */
  46:main.c        **** 
  47:main.c        ****     /* Place your initialization/startup code here (e.g. MyInst_Start()) */
  48:main.c        ****     SPI_Module_Start();
  49:main.c        ****     //SPI_Module_TxEnable();
  50:main.c        ****    
  51:main.c        ****     LCD_Init();
  52:main.c        ****     int colour = 0xF000;
  53:main.c        ****     o_DebugLed_Write(0b111);
  54:main.c        ****     for(;;)
  55:main.c        ****     {
  56:main.c        ****         colour = colour >> 1;
  57:main.c        ****         if(colour == 0)
  58:main.c        ****             colour = 0xF000;
  59:main.c        ****         LCD_Clear(colour);
  60:main.c        ****         CyDelay(300);
  61:main.c        ****     }
  62:main.c        **** }
  63:main.c        **** 
  64:main.c        **** void LCD_Reset(void){
  65:main.c        ****     Display_RST_Write(0);
  66:main.c        ****     //CyPins_ClearPin(o_Display_RST);
  67:main.c        ****     CyDelay(120);
  68:main.c        ****     Display_RST_Write(1);
  69:main.c        ****     //CyPins_SetPin(o_Display_RST);
  70:main.c        ****     CyDelay(20);
  71:main.c        **** }
  72:main.c        **** void LCD_Init(void){
  73:main.c        ****     // TODO
  74:main.c        ****     LCD_Reset();
  75:main.c        ****     
  76:main.c        ****     LCD_WriteReg(0xB1);       // FRMCTR1: Normal mode, full colours p155
  77:main.c        ****   LCD_WriteData_Byte(0x01); // RTNA set 1-line period: 0001
  78:main.c        ****   LCD_WriteData_Byte(0x2C); // FPA: Front porch
  79:main.c        ****   LCD_WriteData_Byte(0x2D); // BPA: Back porch
  80:main.c        **** 
  81:main.c        ****   LCD_WriteReg(0xB2);       // FRMCTR2: In Idle Mode (8-colors) p155
  82:main.c        ****   LCD_WriteData_Byte(0x01); // RTNB: set 1 line period 0001
  83:main.c        ****   LCD_WriteData_Byte(0x2C); // FPB: Front porch
  84:main.c        ****   LCD_WriteData_Byte(0x2D); // BPB: Back porch
  85:main.c        **** 
  86:main.c        ****   LCD_WriteReg(0xB3);       // FRMCTR3: In partial mode + full colours p155 (Partial update??)
  87:main.c        ****   LCD_WriteData_Byte(0x01); // RTNC
  88:main.c        ****   LCD_WriteData_Byte(0x2C); // FPC
ARM GAS  C:\Users\laure\AppData\Local\Temp\ccgfD1R7.s 			page 3


  89:main.c        ****   LCD_WriteData_Byte(0x2D); // BPC
  90:main.c        ****   LCD_WriteData_Byte(0x01); // RTND
  91:main.c        ****   LCD_WriteData_Byte(0x2C); // FPD
  92:main.c        ****   LCD_WriteData_Byte(0x2D); // BPD
  93:main.c        **** 
  94:main.c        ****   LCD_WriteReg(0xB4);       // INVCTR: Display inverion control: Column inversion p155 p162
  95:main.c        ****   LCD_WriteData_Byte(0x07); // Set inversion: currently 111
  96:main.c        **** 
  97:main.c        ****   //ST7735R Power Sequence
  98:main.c        ****   LCD_WriteReg(0xC0);       // PWCTR1 Power control setting p156
  99:main.c        ****   LCD_WriteData_Byte(0xA2); // AVDD 2:0, VRHP 4:0
 100:main.c        ****   LCD_WriteData_Byte(0x02); // 000 + VRHN 4:0 set GVDD voltage
 101:main.c        ****   LCD_WriteData_Byte(0x84); // MODE 1:0 + 000100
 102:main.c        ****   LCD_WriteReg(0xC1);       // PWCTR2 Power control setting p156
 103:main.c        ****   LCD_WriteData_Byte(0xC5); // VGH2 1:0 + -- + VGLS EL 1:0 + VGHB T 1:0
 104:main.c        **** 
 105:main.c        ****   LCD_WriteReg(0xC2);       // PWCTR3: Power control in normal mode(full colours) p156
 106:main.c        ****   LCD_WriteData_Byte(0x0A); // DCA (dc booster) 9:8 + SAPA 2:0 + APA (opamp adj) 2:0 
 107:main.c        ****   LCD_WriteData_Byte(0x00); // DCA (dc booster) 7:0
 108:main.c        **** 
 109:main.c        ****   LCD_WriteReg(0xC3);       // PWCTR4: Power control idle mode(8colours) p156
 110:main.c        ****   LCD_WriteData_Byte(0x8A); // DCB (dc booster) 9:8 + SAPB 2:0 + APB (opamp adjust) 2:0 
 111:main.c        ****   LCD_WriteData_Byte(0x2A); // DCB (dc booster) 7:0
 112:main.c        ****   
 113:main.c        ****   LCD_WriteReg(0xC4);       // PWCTR5: Power control partial mode + fullcolours
 114:main.c        ****   LCD_WriteData_Byte(0x8A); // DCC (dc booster) 9:8 + SAPC 2:0 + APC (opamp adjust) 2:0 
 115:main.c        ****   LCD_WriteData_Byte(0xEE); // DCC (dc booster) 7:0
 116:main.c        **** 
 117:main.c        ****   LCD_WriteReg(0xC5);       // VMCTR1: VCOM control 1
 118:main.c        ****   LCD_WriteData_Byte(0x0E); // -- + VCOMS (voltage control) 5:0 
 119:main.c        **** 
 120:main.c        ****   //ST7735R Gamma Sequence
 121:main.c        ****   LCD_WriteReg(0xe0);       // GAMCTRP1 Gamma adjustment + polarity
 122:main.c        ****   LCD_WriteData_Byte(0x0f);
 123:main.c        ****   LCD_WriteData_Byte(0x1a);
 124:main.c        ****   LCD_WriteData_Byte(0x0f);
 125:main.c        ****   LCD_WriteData_Byte(0x18);
 126:main.c        ****   LCD_WriteData_Byte(0x2f);
 127:main.c        ****   LCD_WriteData_Byte(0x28);
 128:main.c        ****   LCD_WriteData_Byte(0x20);
 129:main.c        ****   LCD_WriteData_Byte(0x22);
 130:main.c        ****   LCD_WriteData_Byte(0x1f);
 131:main.c        ****   LCD_WriteData_Byte(0x1b);
 132:main.c        ****   LCD_WriteData_Byte(0x23);
 133:main.c        ****   LCD_WriteData_Byte(0x37);
 134:main.c        ****   LCD_WriteData_Byte(0x00);
 135:main.c        ****   LCD_WriteData_Byte(0x07);
 136:main.c        ****   LCD_WriteData_Byte(0x02);
 137:main.c        ****   LCD_WriteData_Byte(0x10);
 138:main.c        **** 
 139:main.c        ****   LCD_WriteReg(0xe1);       // GAMCTRN1 Gamma adjustment - polarity
 140:main.c        ****   LCD_WriteData_Byte(0x0f);
 141:main.c        ****   LCD_WriteData_Byte(0x1b);
 142:main.c        ****   LCD_WriteData_Byte(0x0f);
 143:main.c        ****   LCD_WriteData_Byte(0x17);
 144:main.c        ****   LCD_WriteData_Byte(0x33);
 145:main.c        ****   LCD_WriteData_Byte(0x2c);
ARM GAS  C:\Users\laure\AppData\Local\Temp\ccgfD1R7.s 			page 4


 146:main.c        ****   LCD_WriteData_Byte(0x29);
 147:main.c        ****   LCD_WriteData_Byte(0x2e);
 148:main.c        ****   LCD_WriteData_Byte(0x30);
 149:main.c        ****   LCD_WriteData_Byte(0x30);
 150:main.c        ****   LCD_WriteData_Byte(0x39);
 151:main.c        ****   LCD_WriteData_Byte(0x3f);
 152:main.c        ****   LCD_WriteData_Byte(0x00);
 153:main.c        ****   LCD_WriteData_Byte(0x07);
 154:main.c        ****   LCD_WriteData_Byte(0x03);
 155:main.c        ****   LCD_WriteData_Byte(0x10);
 156:main.c        **** 
 157:main.c        **** 
 158:main.c        **** // TODO WTF are these commands??
 159:main.c        **** 
 160:main.c        ****   LCD_WriteReg(0xF0); //Enable test command ???
 161:main.c        ****   LCD_WriteData_Byte(0x01);
 162:main.c        **** 
 163:main.c        ****   LCD_WriteReg(0xF6); //Disable ram power save mode ???
 164:main.c        ****   LCD_WriteData_Byte(0x00);
 165:main.c        **** 
 166:main.c        ****   LCD_WriteReg(0x3A); // Pixel colour mode 
 167:main.c        ****   LCD_WriteData_Byte(0x05); //65k mode (RGB 565)
 168:main.c        **** 
 169:main.c        ****   LCD_WriteReg(0x36); // Memory data access control
 170:main.c        ****   LCD_WriteData_Byte(0x60); //MY + MX + MV + ML + RGB + MH + 0b10
 171:main.c        ****   CyDelay(200);
 172:main.c        **** 
 173:main.c        ****   LCD_WriteReg(0X11); // SLPOUT: Sleep out (off?) and booster on
 174:main.c        ****   CyDelay(200);
 175:main.c        ****   
 176:main.c        ****   LCD_WriteReg(0X29); // Command: display on (display off is 28h)
 177:main.c        ****   CyDelay(200);
 178:main.c        **** }
 179:main.c        **** void LCD_Clear(UWORD colour){
 180:main.c        ****     LCD_SetWindow(0, 0, LCD_WIDTH, LCD_HEIGHT, colour);
 181:main.c        **** }
 182:main.c        **** void LCD_SetWindow(UWORD Xstart, UWORD Ystart, UWORD Xend, UWORD Yend, UWORD colour){
 183:main.c        ****     int bufLen = (Xend - Xstart + 1) * (Yend - Ystart + 1);
 184:main.c        ****     UWORD bufArray[bufLen];
 185:main.c        ****     for(int i = 0; i < bufLen; i++){
 186:main.c        ****         bufArray[i] = colour;
 187:main.c        ****     }   
 188:main.c        ****     
 189:main.c        ****     LCD_SetCursor(Xstart, Ystart, Xend, Yend);
 190:main.c        ****     LCD_TransferBuffer(Xstart, Ystart, Xend, Yend, bufArray);
 191:main.c        ****     /*
 192:main.c        ****     for(int i = 0; i < bufLen; i++){
 193:main.c        ****         LCD_WriteData_Word(colour);
 194:main.c        ****     }
 195:main.c        ****     */
 196:main.c        **** }
 197:main.c        **** 
 198:main.c        **** void LCD_TransferBuffer(UWORD Xstart, UWORD Ystart, UWORD Xend, UWORD Yend, UWORD bufferArray[]){
 199:main.c        ****     int bufLen = (Xend - Xstart + 1) * (Yend - Ystart + 1);
 200:main.c        ****     LCD_SetCursor(Xstart, Ystart, Xend, Yend);
 201:main.c        ****     
 202:main.c        ****     //SPI_Module_STS_BYTE_COMPLETE
ARM GAS  C:\Users\laure\AppData\Local\Temp\ccgfD1R7.s 			page 5


 203:main.c        ****     //SPI_Module_STS_TX_FIFO_NOT_FULL
 204:main.c        ****     for(int i = 0; i < bufLen; i++){
 205:main.c        ****         if(SPI_Module_ReadTxStatus() & SPI_Module_STS_TX_FIFO_NOT_FULL){
 206:main.c        ****             LCD_WriteData_Word(bufferArray[i]);
 207:main.c        ****         }
 208:main.c        ****         else{
 209:main.c        ****             uint8_t bytesComplete = 0;
 210:main.c        ****             while(bytesComplete < 2){
 211:main.c        ****                 if(SPI_Module_ReadTxStatus() & SPI_Module_STS_BYTE_COMPLETE)
 212:main.c        ****                     bytesComplete++;
 213:main.c        ****             }
 214:main.c        ****         }  
 215:main.c        ****     }
 216:main.c        **** }
 217:main.c        **** 
 218:main.c        **** void LCD_WriteData_Byte(UBYTE byte){
 219:main.c        ****     while(SPI_Ready() == 0);
 220:main.c        ****     //CyPins_ClearPin(o_Display_CS);
 221:main.c        ****     LCD_DC_Setmode(DC_DATA);
 222:main.c        ****     SPI_Module_WriteTxData(byte);
 223:main.c        ****     while(SPI_Module_ReadTxStatus() & (SPI_Module_STS_SPI_IDLE));  // Block until transmission star
 224:main.c        ****     //CyPins_SetPin(o_Display_CS);
 225:main.c        **** }
 226:main.c        **** void LCD_WriteData_Word(UWORD word){
 227:main.c        ****     //while(SPI_Ready() == 0);
 228:main.c        ****     //CyPins_ClearPin(o_Display_CS);
 229:main.c        ****     LCD_DC_Setmode(DC_DATA);
 230:main.c        ****     SPI_Module_WriteTxData((UBYTE) (word>>8 )& 0xff); // Send HB first
 231:main.c        ****     SPI_Module_WriteTxData((UBYTE) (word & 0xff));
 232:main.c        ****     //while(SPI_Module_ReadTxStatus() & (SPI_Module_STS_SPI_IDLE));  // Block until transmission st
 233:main.c        ****     //CyPins_SetPin(o_Display_CS);
 234:main.c        **** }
 235:main.c        **** void LCD_WriteReg(UBYTE regAddress){
 236:main.c        ****     while(SPI_Ready() == 0);
 237:main.c        ****     //CyPins_ClearPin(o_Display_CS);
 238:main.c        ****     LCD_DC_Setmode(DC_COMMAND);
 239:main.c        ****     SPI_Module_WriteTxData(regAddress);
 240:main.c        ****     while(SPI_Ready());  // Block until transmission starts. Kinda sucks
 241:main.c        ****     //CyPins_ClearPin(o_Display_CS);
 242:main.c        **** }
 243:main.c        **** 
 244:main.c        **** // Checks if SPI module is done or idle and Tx register is emptt
 245:main.c        **** static int SPI_Ready(){
  27              		.loc 1 245 0
  28              		.cfi_startproc
  29              		@ args = 0, pretend = 0, frame = 0
  30              		@ frame_needed = 0, uses_anonymous_args = 0
  31 0000 10B5     		push	{r4, lr}
  32              		.cfi_def_cfa_offset 8
  33              		.cfi_offset 4, -8
  34              		.cfi_offset 14, -4
 246:main.c        ****     int status = SPI_Module_ReadTxStatus();
  35              		.loc 1 246 0
  36 0002 FFF7FEFF 		bl	SPI_Module_ReadTxStatus
  37              	.LVL0:
 247:main.c        ****     int rdy = (status & (SPI_Module_STS_SPI_IDLE | SPI_Module_STS_BYTE_COMPLETE | SPI_Module_STS_SP
 248:main.c        ****     if(rdy){
ARM GAS  C:\Users\laure\AppData\Local\Temp\ccgfD1R7.s 			page 6


  38              		.loc 1 248 0
  39 0006 10F01904 		ands	r4, r0, #25
  40              	.LVL1:
  41 000a 03D0     		beq	.L2
 249:main.c        ****         DebugPin_Write(1);
  42              		.loc 1 249 0
  43 000c 0120     		movs	r0, #1
  44              	.LVL2:
  45 000e FFF7FEFF 		bl	DebugPin_Write
  46              	.LVL3:
  47 0012 02E0     		b	.L3
  48              	.LVL4:
  49              	.L2:
 250:main.c        ****     }
 251:main.c        ****     else{
 252:main.c        ****         DebugPin_Write(0);        
  50              		.loc 1 252 0
  51 0014 0020     		movs	r0, #0
  52              	.LVL5:
  53 0016 FFF7FEFF 		bl	DebugPin_Write
  54              	.LVL6:
  55              	.L3:
 253:main.c        ****     }
 254:main.c        ****     return rdy;
 255:main.c        **** }
  56              		.loc 1 255 0
  57 001a 2046     		mov	r0, r4
  58 001c 10BD     		pop	{r4, pc}
  59              		.cfi_endproc
  60              	.LFE72:
  61              		.size	SPI_Ready, .-SPI_Ready
  62 001e 00BF     		.section	.text.LCD_DC_Setmode,"ax",%progbits
  63              		.align	2
  64              		.thumb
  65              		.thumb_func
  66              		.type	LCD_DC_Setmode, %function
  67              	LCD_DC_Setmode:
  68              	.LFB73:
 256:main.c        **** 
 257:main.c        **** // Sets LCD display Data/Command pin to correct mode
 258:main.c        **** void LCD_DC_Setmode(uint8_t mode){
  69              		.loc 1 258 0
  70              		.cfi_startproc
  71              		@ args = 0, pretend = 0, frame = 0
  72              		@ frame_needed = 0, uses_anonymous_args = 0
  73              	.LVL7:
  74 0000 08B5     		push	{r3, lr}
  75              		.cfi_def_cfa_offset 8
  76              		.cfi_offset 3, -8
  77              		.cfi_offset 14, -4
 259:main.c        ****     //DebugPin_Write(mode);
 260:main.c        ****     Display_DC_Write(mode);
  78              		.loc 1 260 0
  79 0002 FFF7FEFF 		bl	Display_DC_Write
  80              	.LVL8:
  81 0006 08BD     		pop	{r3, pc}
  82              		.cfi_endproc
ARM GAS  C:\Users\laure\AppData\Local\Temp\ccgfD1R7.s 			page 7


  83              	.LFE73:
  84              		.size	LCD_DC_Setmode, .-LCD_DC_Setmode
  85              		.section	.text.LCD_Reset,"ax",%progbits
  86              		.align	2
  87              		.global	LCD_Reset
  88              		.thumb
  89              		.thumb_func
  90              		.type	LCD_Reset, %function
  91              	LCD_Reset:
  92              	.LFB64:
  64:main.c        ****     Display_RST_Write(0);
  93              		.loc 1 64 0
  94              		.cfi_startproc
  95              		@ args = 0, pretend = 0, frame = 0
  96              		@ frame_needed = 0, uses_anonymous_args = 0
  97 0000 08B5     		push	{r3, lr}
  98              		.cfi_def_cfa_offset 8
  99              		.cfi_offset 3, -8
 100              		.cfi_offset 14, -4
  65:main.c        ****     //CyPins_ClearPin(o_Display_RST);
 101              		.loc 1 65 0
 102 0002 0020     		movs	r0, #0
 103 0004 FFF7FEFF 		bl	Display_RST_Write
 104              	.LVL9:
  67:main.c        ****     Display_RST_Write(1);
 105              		.loc 1 67 0
 106 0008 7820     		movs	r0, #120
 107 000a FFF7FEFF 		bl	CyDelay
 108              	.LVL10:
  68:main.c        ****     //CyPins_SetPin(o_Display_RST);
 109              		.loc 1 68 0
 110 000e 0120     		movs	r0, #1
 111 0010 FFF7FEFF 		bl	Display_RST_Write
 112              	.LVL11:
  70:main.c        **** }
 113              		.loc 1 70 0
 114 0014 1420     		movs	r0, #20
 115 0016 FFF7FEFF 		bl	CyDelay
 116              	.LVL12:
 117 001a 08BD     		pop	{r3, pc}
 118              		.cfi_endproc
 119              	.LFE64:
 120              		.size	LCD_Reset, .-LCD_Reset
 121              		.section	.text.LCD_WriteData_Byte,"ax",%progbits
 122              		.align	2
 123              		.global	LCD_WriteData_Byte
 124              		.thumb
 125              		.thumb_func
 126              		.type	LCD_WriteData_Byte, %function
 127              	LCD_WriteData_Byte:
 128              	.LFB69:
 218:main.c        ****     while(SPI_Ready() == 0);
 129              		.loc 1 218 0
 130              		.cfi_startproc
 131              		@ args = 0, pretend = 0, frame = 0
 132              		@ frame_needed = 0, uses_anonymous_args = 0
 133              	.LVL13:
ARM GAS  C:\Users\laure\AppData\Local\Temp\ccgfD1R7.s 			page 8


 134 0000 10B5     		push	{r4, lr}
 135              		.cfi_def_cfa_offset 8
 136              		.cfi_offset 4, -8
 137              		.cfi_offset 14, -4
 138 0002 0446     		mov	r4, r0
 139              	.LVL14:
 140              	.L10:
 219:main.c        ****     //CyPins_ClearPin(o_Display_CS);
 141              		.loc 1 219 0 discriminator 1
 142 0004 FFF7FEFF 		bl	SPI_Ready
 143              	.LVL15:
 144 0008 0028     		cmp	r0, #0
 145 000a FBD0     		beq	.L10
 221:main.c        ****     SPI_Module_WriteTxData(byte);
 146              		.loc 1 221 0
 147 000c 0120     		movs	r0, #1
 148 000e FFF7FEFF 		bl	LCD_DC_Setmode
 149              	.LVL16:
 222:main.c        ****     while(SPI_Module_ReadTxStatus() & (SPI_Module_STS_SPI_IDLE));  // Block until transmission star
 150              		.loc 1 222 0
 151 0012 2046     		mov	r0, r4
 152 0014 FFF7FEFF 		bl	SPI_Module_WriteTxData
 153              	.LVL17:
 154              	.L11:
 223:main.c        ****     //CyPins_SetPin(o_Display_CS);
 155              		.loc 1 223 0 discriminator 1
 156 0018 FFF7FEFF 		bl	SPI_Module_ReadTxStatus
 157              	.LVL18:
 158 001c 10F0100F 		tst	r0, #16
 159 0020 FAD1     		bne	.L11
 225:main.c        **** void LCD_WriteData_Word(UWORD word){
 160              		.loc 1 225 0
 161 0022 10BD     		pop	{r4, pc}
 162              		.cfi_endproc
 163              	.LFE69:
 164              		.size	LCD_WriteData_Byte, .-LCD_WriteData_Byte
 165              		.section	.text.LCD_WriteData_Word,"ax",%progbits
 166              		.align	2
 167              		.global	LCD_WriteData_Word
 168              		.thumb
 169              		.thumb_func
 170              		.type	LCD_WriteData_Word, %function
 171              	LCD_WriteData_Word:
 172              	.LFB70:
 226:main.c        ****     //while(SPI_Ready() == 0);
 173              		.loc 1 226 0
 174              		.cfi_startproc
 175              		@ args = 0, pretend = 0, frame = 0
 176              		@ frame_needed = 0, uses_anonymous_args = 0
 177              	.LVL19:
 178 0000 10B5     		push	{r4, lr}
 179              		.cfi_def_cfa_offset 8
 180              		.cfi_offset 4, -8
 181              		.cfi_offset 14, -4
 182 0002 0446     		mov	r4, r0
 229:main.c        ****     SPI_Module_WriteTxData((UBYTE) (word>>8 )& 0xff); // Send HB first
 183              		.loc 1 229 0
ARM GAS  C:\Users\laure\AppData\Local\Temp\ccgfD1R7.s 			page 9


 184 0004 0120     		movs	r0, #1
 185              	.LVL20:
 186 0006 FFF7FEFF 		bl	LCD_DC_Setmode
 187              	.LVL21:
 230:main.c        ****     SPI_Module_WriteTxData((UBYTE) (word & 0xff));
 188              		.loc 1 230 0
 189 000a 200A     		lsrs	r0, r4, #8
 190 000c FFF7FEFF 		bl	SPI_Module_WriteTxData
 191              	.LVL22:
 231:main.c        ****     //while(SPI_Module_ReadTxStatus() & (SPI_Module_STS_SPI_IDLE));  // Block until transmission st
 192              		.loc 1 231 0
 193 0010 E0B2     		uxtb	r0, r4
 194 0012 FFF7FEFF 		bl	SPI_Module_WriteTxData
 195              	.LVL23:
 196 0016 10BD     		pop	{r4, pc}
 197              		.cfi_endproc
 198              	.LFE70:
 199              		.size	LCD_WriteData_Word, .-LCD_WriteData_Word
 200              		.section	.text.LCD_WriteReg,"ax",%progbits
 201              		.align	2
 202              		.global	LCD_WriteReg
 203              		.thumb
 204              		.thumb_func
 205              		.type	LCD_WriteReg, %function
 206              	LCD_WriteReg:
 207              	.LFB71:
 235:main.c        ****     while(SPI_Ready() == 0);
 208              		.loc 1 235 0
 209              		.cfi_startproc
 210              		@ args = 0, pretend = 0, frame = 0
 211              		@ frame_needed = 0, uses_anonymous_args = 0
 212              	.LVL24:
 213 0000 10B5     		push	{r4, lr}
 214              		.cfi_def_cfa_offset 8
 215              		.cfi_offset 4, -8
 216              		.cfi_offset 14, -4
 217 0002 0446     		mov	r4, r0
 218              	.LVL25:
 219              	.L16:
 236:main.c        ****     //CyPins_ClearPin(o_Display_CS);
 220              		.loc 1 236 0 discriminator 1
 221 0004 FFF7FEFF 		bl	SPI_Ready
 222              	.LVL26:
 223 0008 0028     		cmp	r0, #0
 224 000a FBD0     		beq	.L16
 238:main.c        ****     SPI_Module_WriteTxData(regAddress);
 225              		.loc 1 238 0
 226 000c 0020     		movs	r0, #0
 227 000e FFF7FEFF 		bl	LCD_DC_Setmode
 228              	.LVL27:
 239:main.c        ****     while(SPI_Ready());  // Block until transmission starts. Kinda sucks
 229              		.loc 1 239 0
 230 0012 2046     		mov	r0, r4
 231 0014 FFF7FEFF 		bl	SPI_Module_WriteTxData
 232              	.LVL28:
 233              	.L17:
 240:main.c        ****     //CyPins_ClearPin(o_Display_CS);
ARM GAS  C:\Users\laure\AppData\Local\Temp\ccgfD1R7.s 			page 10


 234              		.loc 1 240 0 discriminator 1
 235 0018 FFF7FEFF 		bl	SPI_Ready
 236              	.LVL29:
 237 001c 0028     		cmp	r0, #0
 238 001e FBD1     		bne	.L17
 242:main.c        **** 
 239              		.loc 1 242 0
 240 0020 10BD     		pop	{r4, pc}
 241              		.cfi_endproc
 242              	.LFE71:
 243              		.size	LCD_WriteReg, .-LCD_WriteReg
 244 0022 00BF     		.section	.text.LCD_Init,"ax",%progbits
 245              		.align	2
 246              		.global	LCD_Init
 247              		.thumb
 248              		.thumb_func
 249              		.type	LCD_Init, %function
 250              	LCD_Init:
 251              	.LFB65:
  72:main.c        ****     // TODO
 252              		.loc 1 72 0
 253              		.cfi_startproc
 254              		@ args = 0, pretend = 0, frame = 0
 255              		@ frame_needed = 0, uses_anonymous_args = 0
 256 0000 08B5     		push	{r3, lr}
 257              		.cfi_def_cfa_offset 8
 258              		.cfi_offset 3, -8
 259              		.cfi_offset 14, -4
  74:main.c        ****     
 260              		.loc 1 74 0
 261 0002 FFF7FEFF 		bl	LCD_Reset
 262              	.LVL30:
  76:main.c        ****   LCD_WriteData_Byte(0x01); // RTNA set 1-line period: 0001
 263              		.loc 1 76 0
 264 0006 B120     		movs	r0, #177
 265 0008 FFF7FEFF 		bl	LCD_WriteReg
 266              	.LVL31:
  77:main.c        ****   LCD_WriteData_Byte(0x2C); // FPA: Front porch
 267              		.loc 1 77 0
 268 000c 0120     		movs	r0, #1
 269 000e FFF7FEFF 		bl	LCD_WriteData_Byte
 270              	.LVL32:
  78:main.c        ****   LCD_WriteData_Byte(0x2D); // BPA: Back porch
 271              		.loc 1 78 0
 272 0012 2C20     		movs	r0, #44
 273 0014 FFF7FEFF 		bl	LCD_WriteData_Byte
 274              	.LVL33:
  79:main.c        **** 
 275              		.loc 1 79 0
 276 0018 2D20     		movs	r0, #45
 277 001a FFF7FEFF 		bl	LCD_WriteData_Byte
 278              	.LVL34:
  81:main.c        ****   LCD_WriteData_Byte(0x01); // RTNB: set 1 line period 0001
 279              		.loc 1 81 0
 280 001e B220     		movs	r0, #178
 281 0020 FFF7FEFF 		bl	LCD_WriteReg
 282              	.LVL35:
ARM GAS  C:\Users\laure\AppData\Local\Temp\ccgfD1R7.s 			page 11


  82:main.c        ****   LCD_WriteData_Byte(0x2C); // FPB: Front porch
 283              		.loc 1 82 0
 284 0024 0120     		movs	r0, #1
 285 0026 FFF7FEFF 		bl	LCD_WriteData_Byte
 286              	.LVL36:
  83:main.c        ****   LCD_WriteData_Byte(0x2D); // BPB: Back porch
 287              		.loc 1 83 0
 288 002a 2C20     		movs	r0, #44
 289 002c FFF7FEFF 		bl	LCD_WriteData_Byte
 290              	.LVL37:
  84:main.c        **** 
 291              		.loc 1 84 0
 292 0030 2D20     		movs	r0, #45
 293 0032 FFF7FEFF 		bl	LCD_WriteData_Byte
 294              	.LVL38:
  86:main.c        ****   LCD_WriteData_Byte(0x01); // RTNC
 295              		.loc 1 86 0
 296 0036 B320     		movs	r0, #179
 297 0038 FFF7FEFF 		bl	LCD_WriteReg
 298              	.LVL39:
  87:main.c        ****   LCD_WriteData_Byte(0x2C); // FPC
 299              		.loc 1 87 0
 300 003c 0120     		movs	r0, #1
 301 003e FFF7FEFF 		bl	LCD_WriteData_Byte
 302              	.LVL40:
  88:main.c        ****   LCD_WriteData_Byte(0x2D); // BPC
 303              		.loc 1 88 0
 304 0042 2C20     		movs	r0, #44
 305 0044 FFF7FEFF 		bl	LCD_WriteData_Byte
 306              	.LVL41:
  89:main.c        ****   LCD_WriteData_Byte(0x01); // RTND
 307              		.loc 1 89 0
 308 0048 2D20     		movs	r0, #45
 309 004a FFF7FEFF 		bl	LCD_WriteData_Byte
 310              	.LVL42:
  90:main.c        ****   LCD_WriteData_Byte(0x2C); // FPD
 311              		.loc 1 90 0
 312 004e 0120     		movs	r0, #1
 313 0050 FFF7FEFF 		bl	LCD_WriteData_Byte
 314              	.LVL43:
  91:main.c        ****   LCD_WriteData_Byte(0x2D); // BPD
 315              		.loc 1 91 0
 316 0054 2C20     		movs	r0, #44
 317 0056 FFF7FEFF 		bl	LCD_WriteData_Byte
 318              	.LVL44:
  92:main.c        **** 
 319              		.loc 1 92 0
 320 005a 2D20     		movs	r0, #45
 321 005c FFF7FEFF 		bl	LCD_WriteData_Byte
 322              	.LVL45:
  94:main.c        ****   LCD_WriteData_Byte(0x07); // Set inversion: currently 111
 323              		.loc 1 94 0
 324 0060 B420     		movs	r0, #180
 325 0062 FFF7FEFF 		bl	LCD_WriteReg
 326              	.LVL46:
  95:main.c        **** 
 327              		.loc 1 95 0
ARM GAS  C:\Users\laure\AppData\Local\Temp\ccgfD1R7.s 			page 12


 328 0066 0720     		movs	r0, #7
 329 0068 FFF7FEFF 		bl	LCD_WriteData_Byte
 330              	.LVL47:
  98:main.c        ****   LCD_WriteData_Byte(0xA2); // AVDD 2:0, VRHP 4:0
 331              		.loc 1 98 0
 332 006c C020     		movs	r0, #192
 333 006e FFF7FEFF 		bl	LCD_WriteReg
 334              	.LVL48:
  99:main.c        ****   LCD_WriteData_Byte(0x02); // 000 + VRHN 4:0 set GVDD voltage
 335              		.loc 1 99 0
 336 0072 A220     		movs	r0, #162
 337 0074 FFF7FEFF 		bl	LCD_WriteData_Byte
 338              	.LVL49:
 100:main.c        ****   LCD_WriteData_Byte(0x84); // MODE 1:0 + 000100
 339              		.loc 1 100 0
 340 0078 0220     		movs	r0, #2
 341 007a FFF7FEFF 		bl	LCD_WriteData_Byte
 342              	.LVL50:
 101:main.c        ****   LCD_WriteReg(0xC1);       // PWCTR2 Power control setting p156
 343              		.loc 1 101 0
 344 007e 8420     		movs	r0, #132
 345 0080 FFF7FEFF 		bl	LCD_WriteData_Byte
 346              	.LVL51:
 102:main.c        ****   LCD_WriteData_Byte(0xC5); // VGH2 1:0 + -- + VGLS EL 1:0 + VGHB T 1:0
 347              		.loc 1 102 0
 348 0084 C120     		movs	r0, #193
 349 0086 FFF7FEFF 		bl	LCD_WriteReg
 350              	.LVL52:
 103:main.c        **** 
 351              		.loc 1 103 0
 352 008a C520     		movs	r0, #197
 353 008c FFF7FEFF 		bl	LCD_WriteData_Byte
 354              	.LVL53:
 105:main.c        ****   LCD_WriteData_Byte(0x0A); // DCA (dc booster) 9:8 + SAPA 2:0 + APA (opamp adj) 2:0 
 355              		.loc 1 105 0
 356 0090 C220     		movs	r0, #194
 357 0092 FFF7FEFF 		bl	LCD_WriteReg
 358              	.LVL54:
 106:main.c        ****   LCD_WriteData_Byte(0x00); // DCA (dc booster) 7:0
 359              		.loc 1 106 0
 360 0096 0A20     		movs	r0, #10
 361 0098 FFF7FEFF 		bl	LCD_WriteData_Byte
 362              	.LVL55:
 107:main.c        **** 
 363              		.loc 1 107 0
 364 009c 0020     		movs	r0, #0
 365 009e FFF7FEFF 		bl	LCD_WriteData_Byte
 366              	.LVL56:
 109:main.c        ****   LCD_WriteData_Byte(0x8A); // DCB (dc booster) 9:8 + SAPB 2:0 + APB (opamp adjust) 2:0 
 367              		.loc 1 109 0
 368 00a2 C320     		movs	r0, #195
 369 00a4 FFF7FEFF 		bl	LCD_WriteReg
 370              	.LVL57:
 110:main.c        ****   LCD_WriteData_Byte(0x2A); // DCB (dc booster) 7:0
 371              		.loc 1 110 0
 372 00a8 8A20     		movs	r0, #138
 373 00aa FFF7FEFF 		bl	LCD_WriteData_Byte
ARM GAS  C:\Users\laure\AppData\Local\Temp\ccgfD1R7.s 			page 13


 374              	.LVL58:
 111:main.c        ****   
 375              		.loc 1 111 0
 376 00ae 2A20     		movs	r0, #42
 377 00b0 FFF7FEFF 		bl	LCD_WriteData_Byte
 378              	.LVL59:
 113:main.c        ****   LCD_WriteData_Byte(0x8A); // DCC (dc booster) 9:8 + SAPC 2:0 + APC (opamp adjust) 2:0 
 379              		.loc 1 113 0
 380 00b4 C420     		movs	r0, #196
 381 00b6 FFF7FEFF 		bl	LCD_WriteReg
 382              	.LVL60:
 114:main.c        ****   LCD_WriteData_Byte(0xEE); // DCC (dc booster) 7:0
 383              		.loc 1 114 0
 384 00ba 8A20     		movs	r0, #138
 385 00bc FFF7FEFF 		bl	LCD_WriteData_Byte
 386              	.LVL61:
 115:main.c        **** 
 387              		.loc 1 115 0
 388 00c0 EE20     		movs	r0, #238
 389 00c2 FFF7FEFF 		bl	LCD_WriteData_Byte
 390              	.LVL62:
 117:main.c        ****   LCD_WriteData_Byte(0x0E); // -- + VCOMS (voltage control) 5:0 
 391              		.loc 1 117 0
 392 00c6 C520     		movs	r0, #197
 393 00c8 FFF7FEFF 		bl	LCD_WriteReg
 394              	.LVL63:
 118:main.c        **** 
 395              		.loc 1 118 0
 396 00cc 0E20     		movs	r0, #14
 397 00ce FFF7FEFF 		bl	LCD_WriteData_Byte
 398              	.LVL64:
 121:main.c        ****   LCD_WriteData_Byte(0x0f);
 399              		.loc 1 121 0
 400 00d2 E020     		movs	r0, #224
 401 00d4 FFF7FEFF 		bl	LCD_WriteReg
 402              	.LVL65:
 122:main.c        ****   LCD_WriteData_Byte(0x1a);
 403              		.loc 1 122 0
 404 00d8 0F20     		movs	r0, #15
 405 00da FFF7FEFF 		bl	LCD_WriteData_Byte
 406              	.LVL66:
 123:main.c        ****   LCD_WriteData_Byte(0x0f);
 407              		.loc 1 123 0
 408 00de 1A20     		movs	r0, #26
 409 00e0 FFF7FEFF 		bl	LCD_WriteData_Byte
 410              	.LVL67:
 124:main.c        ****   LCD_WriteData_Byte(0x18);
 411              		.loc 1 124 0
 412 00e4 0F20     		movs	r0, #15
 413 00e6 FFF7FEFF 		bl	LCD_WriteData_Byte
 414              	.LVL68:
 125:main.c        ****   LCD_WriteData_Byte(0x2f);
 415              		.loc 1 125 0
 416 00ea 1820     		movs	r0, #24
 417 00ec FFF7FEFF 		bl	LCD_WriteData_Byte
 418              	.LVL69:
 126:main.c        ****   LCD_WriteData_Byte(0x28);
ARM GAS  C:\Users\laure\AppData\Local\Temp\ccgfD1R7.s 			page 14


 419              		.loc 1 126 0
 420 00f0 2F20     		movs	r0, #47
 421 00f2 FFF7FEFF 		bl	LCD_WriteData_Byte
 422              	.LVL70:
 127:main.c        ****   LCD_WriteData_Byte(0x20);
 423              		.loc 1 127 0
 424 00f6 2820     		movs	r0, #40
 425 00f8 FFF7FEFF 		bl	LCD_WriteData_Byte
 426              	.LVL71:
 128:main.c        ****   LCD_WriteData_Byte(0x22);
 427              		.loc 1 128 0
 428 00fc 2020     		movs	r0, #32
 429 00fe FFF7FEFF 		bl	LCD_WriteData_Byte
 430              	.LVL72:
 129:main.c        ****   LCD_WriteData_Byte(0x1f);
 431              		.loc 1 129 0
 432 0102 2220     		movs	r0, #34
 433 0104 FFF7FEFF 		bl	LCD_WriteData_Byte
 434              	.LVL73:
 130:main.c        ****   LCD_WriteData_Byte(0x1b);
 435              		.loc 1 130 0
 436 0108 1F20     		movs	r0, #31
 437 010a FFF7FEFF 		bl	LCD_WriteData_Byte
 438              	.LVL74:
 131:main.c        ****   LCD_WriteData_Byte(0x23);
 439              		.loc 1 131 0
 440 010e 1B20     		movs	r0, #27
 441 0110 FFF7FEFF 		bl	LCD_WriteData_Byte
 442              	.LVL75:
 132:main.c        ****   LCD_WriteData_Byte(0x37);
 443              		.loc 1 132 0
 444 0114 2320     		movs	r0, #35
 445 0116 FFF7FEFF 		bl	LCD_WriteData_Byte
 446              	.LVL76:
 133:main.c        ****   LCD_WriteData_Byte(0x00);
 447              		.loc 1 133 0
 448 011a 3720     		movs	r0, #55
 449 011c FFF7FEFF 		bl	LCD_WriteData_Byte
 450              	.LVL77:
 134:main.c        ****   LCD_WriteData_Byte(0x07);
 451              		.loc 1 134 0
 452 0120 0020     		movs	r0, #0
 453 0122 FFF7FEFF 		bl	LCD_WriteData_Byte
 454              	.LVL78:
 135:main.c        ****   LCD_WriteData_Byte(0x02);
 455              		.loc 1 135 0
 456 0126 0720     		movs	r0, #7
 457 0128 FFF7FEFF 		bl	LCD_WriteData_Byte
 458              	.LVL79:
 136:main.c        ****   LCD_WriteData_Byte(0x10);
 459              		.loc 1 136 0
 460 012c 0220     		movs	r0, #2
 461 012e FFF7FEFF 		bl	LCD_WriteData_Byte
 462              	.LVL80:
 137:main.c        **** 
 463              		.loc 1 137 0
 464 0132 1020     		movs	r0, #16
ARM GAS  C:\Users\laure\AppData\Local\Temp\ccgfD1R7.s 			page 15


 465 0134 FFF7FEFF 		bl	LCD_WriteData_Byte
 466              	.LVL81:
 139:main.c        ****   LCD_WriteData_Byte(0x0f);
 467              		.loc 1 139 0
 468 0138 E120     		movs	r0, #225
 469 013a FFF7FEFF 		bl	LCD_WriteReg
 470              	.LVL82:
 140:main.c        ****   LCD_WriteData_Byte(0x1b);
 471              		.loc 1 140 0
 472 013e 0F20     		movs	r0, #15
 473 0140 FFF7FEFF 		bl	LCD_WriteData_Byte
 474              	.LVL83:
 141:main.c        ****   LCD_WriteData_Byte(0x0f);
 475              		.loc 1 141 0
 476 0144 1B20     		movs	r0, #27
 477 0146 FFF7FEFF 		bl	LCD_WriteData_Byte
 478              	.LVL84:
 142:main.c        ****   LCD_WriteData_Byte(0x17);
 479              		.loc 1 142 0
 480 014a 0F20     		movs	r0, #15
 481 014c FFF7FEFF 		bl	LCD_WriteData_Byte
 482              	.LVL85:
 143:main.c        ****   LCD_WriteData_Byte(0x33);
 483              		.loc 1 143 0
 484 0150 1720     		movs	r0, #23
 485 0152 FFF7FEFF 		bl	LCD_WriteData_Byte
 486              	.LVL86:
 144:main.c        ****   LCD_WriteData_Byte(0x2c);
 487              		.loc 1 144 0
 488 0156 3320     		movs	r0, #51
 489 0158 FFF7FEFF 		bl	LCD_WriteData_Byte
 490              	.LVL87:
 145:main.c        ****   LCD_WriteData_Byte(0x29);
 491              		.loc 1 145 0
 492 015c 2C20     		movs	r0, #44
 493 015e FFF7FEFF 		bl	LCD_WriteData_Byte
 494              	.LVL88:
 146:main.c        ****   LCD_WriteData_Byte(0x2e);
 495              		.loc 1 146 0
 496 0162 2920     		movs	r0, #41
 497 0164 FFF7FEFF 		bl	LCD_WriteData_Byte
 498              	.LVL89:
 147:main.c        ****   LCD_WriteData_Byte(0x30);
 499              		.loc 1 147 0
 500 0168 2E20     		movs	r0, #46
 501 016a FFF7FEFF 		bl	LCD_WriteData_Byte
 502              	.LVL90:
 148:main.c        ****   LCD_WriteData_Byte(0x30);
 503              		.loc 1 148 0
 504 016e 3020     		movs	r0, #48
 505 0170 FFF7FEFF 		bl	LCD_WriteData_Byte
 506              	.LVL91:
 149:main.c        ****   LCD_WriteData_Byte(0x39);
 507              		.loc 1 149 0
 508 0174 3020     		movs	r0, #48
 509 0176 FFF7FEFF 		bl	LCD_WriteData_Byte
 510              	.LVL92:
ARM GAS  C:\Users\laure\AppData\Local\Temp\ccgfD1R7.s 			page 16


 150:main.c        ****   LCD_WriteData_Byte(0x3f);
 511              		.loc 1 150 0
 512 017a 3920     		movs	r0, #57
 513 017c FFF7FEFF 		bl	LCD_WriteData_Byte
 514              	.LVL93:
 151:main.c        ****   LCD_WriteData_Byte(0x00);
 515              		.loc 1 151 0
 516 0180 3F20     		movs	r0, #63
 517 0182 FFF7FEFF 		bl	LCD_WriteData_Byte
 518              	.LVL94:
 152:main.c        ****   LCD_WriteData_Byte(0x07);
 519              		.loc 1 152 0
 520 0186 0020     		movs	r0, #0
 521 0188 FFF7FEFF 		bl	LCD_WriteData_Byte
 522              	.LVL95:
 153:main.c        ****   LCD_WriteData_Byte(0x03);
 523              		.loc 1 153 0
 524 018c 0720     		movs	r0, #7
 525 018e FFF7FEFF 		bl	LCD_WriteData_Byte
 526              	.LVL96:
 154:main.c        ****   LCD_WriteData_Byte(0x10);
 527              		.loc 1 154 0
 528 0192 0320     		movs	r0, #3
 529 0194 FFF7FEFF 		bl	LCD_WriteData_Byte
 530              	.LVL97:
 155:main.c        **** 
 531              		.loc 1 155 0
 532 0198 1020     		movs	r0, #16
 533 019a FFF7FEFF 		bl	LCD_WriteData_Byte
 534              	.LVL98:
 160:main.c        ****   LCD_WriteData_Byte(0x01);
 535              		.loc 1 160 0
 536 019e F020     		movs	r0, #240
 537 01a0 FFF7FEFF 		bl	LCD_WriteReg
 538              	.LVL99:
 161:main.c        **** 
 539              		.loc 1 161 0
 540 01a4 0120     		movs	r0, #1
 541 01a6 FFF7FEFF 		bl	LCD_WriteData_Byte
 542              	.LVL100:
 163:main.c        ****   LCD_WriteData_Byte(0x00);
 543              		.loc 1 163 0
 544 01aa F620     		movs	r0, #246
 545 01ac FFF7FEFF 		bl	LCD_WriteReg
 546              	.LVL101:
 164:main.c        **** 
 547              		.loc 1 164 0
 548 01b0 0020     		movs	r0, #0
 549 01b2 FFF7FEFF 		bl	LCD_WriteData_Byte
 550              	.LVL102:
 166:main.c        ****   LCD_WriteData_Byte(0x05); //65k mode (RGB 565)
 551              		.loc 1 166 0
 552 01b6 3A20     		movs	r0, #58
 553 01b8 FFF7FEFF 		bl	LCD_WriteReg
 554              	.LVL103:
 167:main.c        **** 
 555              		.loc 1 167 0
ARM GAS  C:\Users\laure\AppData\Local\Temp\ccgfD1R7.s 			page 17


 556 01bc 0520     		movs	r0, #5
 557 01be FFF7FEFF 		bl	LCD_WriteData_Byte
 558              	.LVL104:
 169:main.c        ****   LCD_WriteData_Byte(0x60); //MY + MX + MV + ML + RGB + MH + 0b10
 559              		.loc 1 169 0
 560 01c2 3620     		movs	r0, #54
 561 01c4 FFF7FEFF 		bl	LCD_WriteReg
 562              	.LVL105:
 170:main.c        ****   CyDelay(200);
 563              		.loc 1 170 0
 564 01c8 6020     		movs	r0, #96
 565 01ca FFF7FEFF 		bl	LCD_WriteData_Byte
 566              	.LVL106:
 171:main.c        **** 
 567              		.loc 1 171 0
 568 01ce C820     		movs	r0, #200
 569 01d0 FFF7FEFF 		bl	CyDelay
 570              	.LVL107:
 173:main.c        ****   CyDelay(200);
 571              		.loc 1 173 0
 572 01d4 1120     		movs	r0, #17
 573 01d6 FFF7FEFF 		bl	LCD_WriteReg
 574              	.LVL108:
 174:main.c        ****   
 575              		.loc 1 174 0
 576 01da C820     		movs	r0, #200
 577 01dc FFF7FEFF 		bl	CyDelay
 578              	.LVL109:
 176:main.c        ****   CyDelay(200);
 579              		.loc 1 176 0
 580 01e0 2920     		movs	r0, #41
 581 01e2 FFF7FEFF 		bl	LCD_WriteReg
 582              	.LVL110:
 177:main.c        **** }
 583              		.loc 1 177 0
 584 01e6 C820     		movs	r0, #200
 585 01e8 FFF7FEFF 		bl	CyDelay
 586              	.LVL111:
 587 01ec 08BD     		pop	{r3, pc}
 588              		.cfi_endproc
 589              	.LFE65:
 590              		.size	LCD_Init, .-LCD_Init
 591 01ee 00BF     		.section	.text.LCD_SetCursor,"ax",%progbits
 592              		.align	2
 593              		.global	LCD_SetCursor
 594              		.thumb
 595              		.thumb_func
 596              		.type	LCD_SetCursor, %function
 597              	LCD_SetCursor:
 598              	.LFB74:
 261:main.c        ****     /*
 262:main.c        ****     if(mode == DC_COMMAND)
 263:main.c        ****         CyPins_ClearPin(Display_DC);
 264:main.c        ****     else if(mode == DC_DATA)
 265:main.c        ****         CyPins_SetPin(Display_DC);
 266:main.c        ****     */
 267:main.c        **** }
ARM GAS  C:\Users\laure\AppData\Local\Temp\ccgfD1R7.s 			page 18


 268:main.c        **** 
 269:main.c        **** void LCD_SetCursor(UWORD Xstart, UWORD Ystart, UWORD Xend, UWORD  Yend){
 599              		.loc 1 269 0
 600              		.cfi_startproc
 601              		@ args = 0, pretend = 0, frame = 0
 602              		@ frame_needed = 0, uses_anonymous_args = 0
 603              	.LVL112:
 604 0000 F8B5     		push	{r3, r4, r5, r6, r7, lr}
 605              		.cfi_def_cfa_offset 24
 606              		.cfi_offset 3, -24
 607              		.cfi_offset 4, -20
 608              		.cfi_offset 5, -16
 609              		.cfi_offset 6, -12
 610              		.cfi_offset 7, -8
 611              		.cfi_offset 14, -4
 612 0002 0646     		mov	r6, r0
 613 0004 0D46     		mov	r5, r1
 614 0006 1746     		mov	r7, r2
 615 0008 1C46     		mov	r4, r3
 270:main.c        ****     // TODO this windowing seems slightly off??
 271:main.c        ****   LCD_WriteReg(0x2A); // Set RAM X Window
 616              		.loc 1 271 0
 617 000a 2A20     		movs	r0, #42
 618              	.LVL113:
 619 000c FFF7FEFF 		bl	LCD_WriteReg
 620              	.LVL114:
 272:main.c        ****   LCD_WriteData_Byte(0X00);
 621              		.loc 1 272 0
 622 0010 0020     		movs	r0, #0
 623 0012 FFF7FEFF 		bl	LCD_WriteData_Byte
 624              	.LVL115:
 273:main.c        ****   LCD_WriteData_Byte((Xstart & 0xff) + 1);
 625              		.loc 1 273 0
 626 0016 701C     		adds	r0, r6, #1
 627 0018 C0B2     		uxtb	r0, r0
 628 001a FFF7FEFF 		bl	LCD_WriteData_Byte
 629              	.LVL116:
 274:main.c        ****   LCD_WriteData_Byte(0X00);
 630              		.loc 1 274 0
 631 001e 0020     		movs	r0, #0
 632 0020 FFF7FEFF 		bl	LCD_WriteData_Byte
 633              	.LVL117:
 275:main.c        ****   LCD_WriteData_Byte((( Xend - 1 ) & 0xff) + 1);
 634              		.loc 1 275 0
 635 0024 F8B2     		uxtb	r0, r7
 636 0026 FFF7FEFF 		bl	LCD_WriteData_Byte
 637              	.LVL118:
 276:main.c        **** 
 277:main.c        ****   LCD_WriteReg(0x2B); // Set RAM Y window
 638              		.loc 1 277 0
 639 002a 2B20     		movs	r0, #43
 640 002c FFF7FEFF 		bl	LCD_WriteReg
 641              	.LVL119:
 278:main.c        ****   LCD_WriteData_Byte(0X00);
 642              		.loc 1 278 0
 643 0030 0020     		movs	r0, #0
 644 0032 FFF7FEFF 		bl	LCD_WriteData_Byte
ARM GAS  C:\Users\laure\AppData\Local\Temp\ccgfD1R7.s 			page 19


 645              	.LVL120:
 279:main.c        ****   LCD_WriteData_Byte((Ystart & 0xff) + 2);
 646              		.loc 1 279 0
 647 0036 A81C     		adds	r0, r5, #2
 648 0038 C0B2     		uxtb	r0, r0
 649 003a FFF7FEFF 		bl	LCD_WriteData_Byte
 650              	.LVL121:
 280:main.c        ****   LCD_WriteData_Byte(0X00);
 651              		.loc 1 280 0
 652 003e 0020     		movs	r0, #0
 653 0040 FFF7FEFF 		bl	LCD_WriteData_Byte
 654              	.LVL122:
 281:main.c        ****   LCD_WriteData_Byte(( (Yend - 1) & 0xff ) + 2);
 655              		.loc 1 281 0
 656 0044 601C     		adds	r0, r4, #1
 657 0046 C0B2     		uxtb	r0, r0
 658 0048 FFF7FEFF 		bl	LCD_WriteData_Byte
 659              	.LVL123:
 282:main.c        **** 
 283:main.c        ****   LCD_WriteReg(0x2C); // Begin RAM write
 660              		.loc 1 283 0
 661 004c 2C20     		movs	r0, #44
 662 004e FFF7FEFF 		bl	LCD_WriteReg
 663              	.LVL124:
 664 0052 F8BD     		pop	{r3, r4, r5, r6, r7, pc}
 665              		.cfi_endproc
 666              	.LFE74:
 667              		.size	LCD_SetCursor, .-LCD_SetCursor
 668              		.section	.text.LCD_TransferBuffer,"ax",%progbits
 669              		.align	2
 670              		.global	LCD_TransferBuffer
 671              		.thumb
 672              		.thumb_func
 673              		.type	LCD_TransferBuffer, %function
 674              	LCD_TransferBuffer:
 675              	.LFB68:
 198:main.c        ****     int bufLen = (Xend - Xstart + 1) * (Yend - Ystart + 1);
 676              		.loc 1 198 0
 677              		.cfi_startproc
 678              		@ args = 4, pretend = 0, frame = 0
 679              		@ frame_needed = 0, uses_anonymous_args = 0
 680              	.LVL125:
 681 0000 F8B5     		push	{r3, r4, r5, r6, r7, lr}
 682              		.cfi_def_cfa_offset 24
 683              		.cfi_offset 3, -24
 684              		.cfi_offset 4, -20
 685              		.cfi_offset 5, -16
 686              		.cfi_offset 6, -12
 687              		.cfi_offset 7, -8
 688              		.cfi_offset 14, -4
 689 0002 069F     		ldr	r7, [sp, #24]
 199:main.c        ****     LCD_SetCursor(Xstart, Ystart, Xend, Yend);
 690              		.loc 1 199 0
 691 0004 141A     		subs	r4, r2, r0
 692 0006 5E1A     		subs	r6, r3, r1
 693 0008 0136     		adds	r6, r6, #1
 694 000a 04FB0666 		mla	r6, r4, r6, r6
ARM GAS  C:\Users\laure\AppData\Local\Temp\ccgfD1R7.s 			page 20


 695              	.LVL126:
 200:main.c        ****     
 696              		.loc 1 200 0
 697 000e FFF7FEFF 		bl	LCD_SetCursor
 698              	.LVL127:
 699              	.LBB2:
 204:main.c        ****         if(SPI_Module_ReadTxStatus() & SPI_Module_STS_TX_FIFO_NOT_FULL){
 700              		.loc 1 204 0
 701 0012 0025     		movs	r5, #0
 702 0014 15E0     		b	.L24
 703              	.LVL128:
 704              	.L29:
 205:main.c        ****             LCD_WriteData_Word(bufferArray[i]);
 705              		.loc 1 205 0
 706 0016 FFF7FEFF 		bl	SPI_Module_ReadTxStatus
 707              	.LVL129:
 708 001a 10F0040F 		tst	r0, #4
 709 001e 0CD0     		beq	.L30
 206:main.c        ****         }
 710              		.loc 1 206 0
 711 0020 37F81500 		ldrh	r0, [r7, r5, lsl #1]
 712 0024 FFF7FEFF 		bl	LCD_WriteData_Word
 713              	.LVL130:
 714 0028 0AE0     		b	.L26
 715              	.LVL131:
 716              	.L28:
 717              	.LBB3:
 211:main.c        ****                     bytesComplete++;
 718              		.loc 1 211 0
 719 002a FFF7FEFF 		bl	SPI_Module_ReadTxStatus
 720              	.LVL132:
 721 002e 10F0080F 		tst	r0, #8
 722 0032 03D0     		beq	.L25
 212:main.c        ****             }
 723              		.loc 1 212 0
 724 0034 0134     		adds	r4, r4, #1
 725              	.LVL133:
 726 0036 E4B2     		uxtb	r4, r4
 727              	.LVL134:
 728 0038 00E0     		b	.L25
 729              	.LVL135:
 730              	.L30:
 731              	.LBE3:
 732 003a 0024     		movs	r4, #0
 733              	.L25:
 734              	.LVL136:
 735              	.LBB4:
 210:main.c        ****                 if(SPI_Module_ReadTxStatus() & SPI_Module_STS_BYTE_COMPLETE)
 736              		.loc 1 210 0
 737 003c 012C     		cmp	r4, #1
 738 003e F4D9     		bls	.L28
 739              	.LVL137:
 740              	.L26:
 741              	.LBE4:
 204:main.c        ****         if(SPI_Module_ReadTxStatus() & SPI_Module_STS_TX_FIFO_NOT_FULL){
 742              		.loc 1 204 0 discriminator 2
 743 0040 0135     		adds	r5, r5, #1
ARM GAS  C:\Users\laure\AppData\Local\Temp\ccgfD1R7.s 			page 21


 744              	.LVL138:
 745              	.L24:
 204:main.c        ****         if(SPI_Module_ReadTxStatus() & SPI_Module_STS_TX_FIFO_NOT_FULL){
 746              		.loc 1 204 0 is_stmt 0 discriminator 1
 747 0042 B542     		cmp	r5, r6
 748 0044 E7DB     		blt	.L29
 749              	.LBE2:
 216:main.c        **** 
 750              		.loc 1 216 0 is_stmt 1
 751 0046 F8BD     		pop	{r3, r4, r5, r6, r7, pc}
 752              		.cfi_endproc
 753              	.LFE68:
 754              		.size	LCD_TransferBuffer, .-LCD_TransferBuffer
 755              		.section	.text.LCD_SetWindow,"ax",%progbits
 756              		.align	2
 757              		.global	LCD_SetWindow
 758              		.thumb
 759              		.thumb_func
 760              		.type	LCD_SetWindow, %function
 761              	LCD_SetWindow:
 762              	.LFB67:
 182:main.c        ****     int bufLen = (Xend - Xstart + 1) * (Yend - Ystart + 1);
 763              		.loc 1 182 0
 764              		.cfi_startproc
 765              		@ args = 4, pretend = 0, frame = 0
 766              		@ frame_needed = 1, uses_anonymous_args = 0
 767              	.LVL139:
 768 0000 2DE9F043 		push	{r4, r5, r6, r7, r8, r9, lr}
 769              		.cfi_def_cfa_offset 28
 770              		.cfi_offset 4, -28
 771              		.cfi_offset 5, -24
 772              		.cfi_offset 6, -20
 773              		.cfi_offset 7, -16
 774              		.cfi_offset 8, -12
 775              		.cfi_offset 9, -8
 776              		.cfi_offset 14, -4
 777 0004 83B0     		sub	sp, sp, #12
 778              		.cfi_def_cfa_offset 40
 779 0006 02AF     		add	r7, sp, #8
 780              		.cfi_def_cfa 7, 32
 781 0008 0446     		mov	r4, r0
 782 000a 0D46     		mov	r5, r1
 783 000c 1646     		mov	r6, r2
 784 000e 9846     		mov	r8, r3
 785 0010 398C     		ldrh	r1, [r7, #32]
 786              	.LVL140:
 183:main.c        ****     UWORD bufArray[bufLen];
 787              		.loc 1 183 0
 788 0012 131A     		subs	r3, r2, r0
 789              	.LVL141:
 790 0014 C5EB0802 		rsb	r2, r5, r8
 791              	.LVL142:
 792 0018 0132     		adds	r2, r2, #1
 793 001a 03FB0222 		mla	r2, r3, r2, r2
 794              	.LVL143:
 184:main.c        ****     for(int i = 0; i < bufLen; i++){
 795              		.loc 1 184 0
ARM GAS  C:\Users\laure\AppData\Local\Temp\ccgfD1R7.s 			page 22


 796 001e 5300     		lsls	r3, r2, #1
 797 0020 0833     		adds	r3, r3, #8
 798 0022 23F00703 		bic	r3, r3, #7
 799 0026 ADEB030D 		sub	sp, sp, r3
 800 002a 0DF10809 		add	r9, sp, #8
 801              	.LVL144:
 802              	.LBB5:
 185:main.c        ****         bufArray[i] = colour;
 803              		.loc 1 185 0
 804 002e 0023     		movs	r3, #0
 805 0030 02E0     		b	.L33
 806              	.LVL145:
 807              	.L34:
 186:main.c        ****     }   
 808              		.loc 1 186 0 discriminator 3
 809 0032 29F81310 		strh	r1, [r9, r3, lsl #1]	@ movhi
 185:main.c        ****         bufArray[i] = colour;
 810              		.loc 1 185 0 discriminator 3
 811 0036 0133     		adds	r3, r3, #1
 812              	.LVL146:
 813              	.L33:
 185:main.c        ****         bufArray[i] = colour;
 814              		.loc 1 185 0 is_stmt 0 discriminator 1
 815 0038 9342     		cmp	r3, r2
 816 003a FADB     		blt	.L34
 817              	.LBE5:
 189:main.c        ****     LCD_TransferBuffer(Xstart, Ystart, Xend, Yend, bufArray);
 818              		.loc 1 189 0 is_stmt 1
 819 003c 4346     		mov	r3, r8
 820              	.LVL147:
 821 003e 3246     		mov	r2, r6
 822              	.LVL148:
 823 0040 2946     		mov	r1, r5
 824 0042 2046     		mov	r0, r4
 825              	.LVL149:
 826 0044 FFF7FEFF 		bl	LCD_SetCursor
 827              	.LVL150:
 190:main.c        ****     /*
 828              		.loc 1 190 0
 829 0048 CDF80090 		str	r9, [sp]
 830 004c 4346     		mov	r3, r8
 831 004e 3246     		mov	r2, r6
 832 0050 2946     		mov	r1, r5
 833 0052 2046     		mov	r0, r4
 834 0054 FFF7FEFF 		bl	LCD_TransferBuffer
 835              	.LVL151:
 196:main.c        **** 
 836              		.loc 1 196 0
 837 0058 0437     		adds	r7, r7, #4
 838              		.cfi_def_cfa_offset 28
 839 005a BD46     		mov	sp, r7
 840              		.cfi_def_cfa_register 13
 841              		@ sp needed
 842 005c BDE8F083 		pop	{r4, r5, r6, r7, r8, r9, pc}
 843              		.cfi_endproc
 844              	.LFE67:
 845              		.size	LCD_SetWindow, .-LCD_SetWindow
ARM GAS  C:\Users\laure\AppData\Local\Temp\ccgfD1R7.s 			page 23


 846              		.section	.text.LCD_Clear,"ax",%progbits
 847              		.align	2
 848              		.global	LCD_Clear
 849              		.thumb
 850              		.thumb_func
 851              		.type	LCD_Clear, %function
 852              	LCD_Clear:
 853              	.LFB66:
 179:main.c        ****     LCD_SetWindow(0, 0, LCD_WIDTH, LCD_HEIGHT, colour);
 854              		.loc 1 179 0
 855              		.cfi_startproc
 856              		@ args = 0, pretend = 0, frame = 0
 857              		@ frame_needed = 0, uses_anonymous_args = 0
 858              	.LVL152:
 859 0000 00B5     		push	{lr}
 860              		.cfi_def_cfa_offset 4
 861              		.cfi_offset 14, -4
 862 0002 83B0     		sub	sp, sp, #12
 863              		.cfi_def_cfa_offset 16
 180:main.c        **** }
 864              		.loc 1 180 0
 865 0004 0090     		str	r0, [sp]
 866 0006 8023     		movs	r3, #128
 867 0008 A022     		movs	r2, #160
 868 000a 0021     		movs	r1, #0
 869 000c 0846     		mov	r0, r1
 870              	.LVL153:
 871 000e FFF7FEFF 		bl	LCD_SetWindow
 872              	.LVL154:
 181:main.c        **** void LCD_SetWindow(UWORD Xstart, UWORD Ystart, UWORD Xend, UWORD Yend, UWORD colour){
 873              		.loc 1 181 0
 874 0012 03B0     		add	sp, sp, #12
 875              		.cfi_def_cfa_offset 4
 876              		@ sp needed
 877 0014 5DF804FB 		ldr	pc, [sp], #4
 878              		.cfi_endproc
 879              	.LFE66:
 880              		.size	LCD_Clear, .-LCD_Clear
 881              		.section	.text.main,"ax",%progbits
 882              		.align	2
 883              		.global	main
 884              		.thumb
 885              		.thumb_func
 886              		.type	main, %function
 887              	main:
 888              	.LFB63:
  44:main.c        ****     CyGlobalIntEnable; /* Enable global interrupts. */
 889              		.loc 1 44 0
 890              		.cfi_startproc
 891              		@ args = 0, pretend = 0, frame = 0
 892              		@ frame_needed = 0, uses_anonymous_args = 0
 893 0000 10B5     		push	{r4, lr}
 894              		.cfi_def_cfa_offset 8
 895              		.cfi_offset 4, -8
 896              		.cfi_offset 14, -4
  45:main.c        **** 
 897              		.loc 1 45 0
ARM GAS  C:\Users\laure\AppData\Local\Temp\ccgfD1R7.s 			page 24


 898              		.syntax unified
 899              	@ 45 "main.c" 1
 900 0002 62B6     		CPSIE   i
 901              	@ 0 "" 2
  48:main.c        ****     //SPI_Module_TxEnable();
 902              		.loc 1 48 0
 903              		.thumb
 904              		.syntax unified
 905 0004 FFF7FEFF 		bl	SPI_Module_Start
 906              	.LVL155:
  51:main.c        ****     int colour = 0xF000;
 907              		.loc 1 51 0
 908 0008 FFF7FEFF 		bl	LCD_Init
 909              	.LVL156:
  53:main.c        ****     for(;;)
 910              		.loc 1 53 0
 911 000c 0720     		movs	r0, #7
 912 000e FFF7FEFF 		bl	o_DebugLed_Write
 913              	.LVL157:
  52:main.c        ****     o_DebugLed_Write(0b111);
 914              		.loc 1 52 0
 915 0012 4FF47044 		mov	r4, #61440
 916              	.LVL158:
 917              	.L40:
  57:main.c        ****             colour = 0xF000;
 918              		.loc 1 57 0
 919 0016 6410     		asrs	r4, r4, #1
 920              	.LVL159:
 921 0018 01D1     		bne	.L39
  58:main.c        ****         LCD_Clear(colour);
 922              		.loc 1 58 0
 923 001a 4FF47044 		mov	r4, #61440
 924              	.LVL160:
 925              	.L39:
  59:main.c        ****         CyDelay(300);
 926              		.loc 1 59 0
 927 001e A0B2     		uxth	r0, r4
 928 0020 FFF7FEFF 		bl	LCD_Clear
 929              	.LVL161:
  60:main.c        ****     }
 930              		.loc 1 60 0
 931 0024 4FF49670 		mov	r0, #300
 932 0028 FFF7FEFF 		bl	CyDelay
 933              	.LVL162:
  61:main.c        **** }
 934              		.loc 1 61 0
 935 002c F3E7     		b	.L40
 936              		.cfi_endproc
 937              	.LFE63:
 938              		.size	main, .-main
 939 002e 00BF     		.section	.text.LCD_SetPixel,"ax",%progbits
 940              		.align	2
 941              		.global	LCD_SetPixel
 942              		.thumb
 943              		.thumb_func
 944              		.type	LCD_SetPixel, %function
 945              	LCD_SetPixel:
ARM GAS  C:\Users\laure\AppData\Local\Temp\ccgfD1R7.s 			page 25


 946              	.LFB75:
 284:main.c        **** }
 285:main.c        **** void LCD_SetPixel(UWORD x, UWORD y, UWORD Color){
 947              		.loc 1 285 0
 948              		.cfi_startproc
 949              		@ args = 0, pretend = 0, frame = 0
 950              		@ frame_needed = 0, uses_anonymous_args = 0
 951              	.LVL163:
 952 0000 10B5     		push	{r4, lr}
 953              		.cfi_def_cfa_offset 8
 954              		.cfi_offset 4, -8
 955              		.cfi_offset 14, -4
 956 0002 1446     		mov	r4, r2
 286:main.c        ****   LCD_SetCursor(x, y, x, y);
 957              		.loc 1 286 0
 958 0004 0B46     		mov	r3, r1
 959 0006 0246     		mov	r2, r0
 960              	.LVL164:
 961 0008 FFF7FEFF 		bl	LCD_SetCursor
 962              	.LVL165:
 287:main.c        ****   LCD_WriteData_Word(Color);    
 963              		.loc 1 287 0
 964 000c 2046     		mov	r0, r4
 965 000e FFF7FEFF 		bl	LCD_WriteData_Word
 966              	.LVL166:
 967 0012 10BD     		pop	{r4, pc}
 968              		.cfi_endproc
 969              	.LFE75:
 970              		.size	LCD_SetPixel, .-LCD_SetPixel
 971              		.text
 972              	.Letext0:
 973              		.file 2 "d:\\applications\\cypress\\psoc creator\\4.4\\psoc creator\\import\\gnu\\arm\\5.4.1\\arm-
 974              		.file 3 "d:\\applications\\cypress\\psoc creator\\4.4\\psoc creator\\import\\gnu\\arm\\5.4.1\\arm-
 975              		.file 4 "Generated_Source\\PSoC5/cytypes.h"
 976              		.file 5 "..\\Schakelklok.cydsn\\Schakelklok_types.h"
 977              		.file 6 "Generated_Source\\PSoC5/SPI_Module.h"
 978              		.file 7 "Generated_Source\\PSoC5/DebugPin.h"
 979              		.file 8 "Generated_Source\\PSoC5/Display_DC.h"
 980              		.file 9 "Generated_Source\\PSoC5/Display_RST.h"
 981              		.file 10 "Generated_Source\\PSoC5/CyLib.h"
 982              		.file 11 "Generated_Source\\PSoC5/o_DebugLed.h"
 983              		.file 12 "Generated_Source\\PSoC5/core_cm3.h"