ARM GAS  C:\Users\laure\AppData\Local\Temp\ccHaU8kd.s 			page 1


   1              		.syntax unified
   2              		.cpu cortex-m3
   3              		.fpu softvfp
   4              		.eabi_attribute 20, 1
   5              		.eabi_attribute 21, 1
   6              		.eabi_attribute 23, 3
   7              		.eabi_attribute 24, 1
   8              		.eabi_attribute 25, 1
   9              		.eabi_attribute 26, 1
  10              		.eabi_attribute 30, 1
  11              		.eabi_attribute 34, 1
  12              		.eabi_attribute 18, 4
  13              		.thumb
  14              		.syntax unified
  15              		.file	"main.c"
  16              		.text
  17              	.Ltext0:
  18              		.cfi_sections	.debug_frame
  19              		.section	.text.MS_CALIBRATION_INTVECT,"ax",%progbits
  20              		.align	2
  21              		.global	MS_CALIBRATION_INTVECT
  22              		.thumb
  23              		.thumb_func
  24              		.type	MS_CALIBRATION_INTVECT, %function
  25              	MS_CALIBRATION_INTVECT:
  26              	.LFB64:
  27              		.file 1 "main.c"
   1:main.c        **** /* ========================================
   2:main.c        ****  *
   3:main.c        ****  * Copyright YOUR COMPANY, THE YEAR
   4:main.c        ****  * All Rights Reserved
   5:main.c        ****  * UNPUBLISHED, LICENSED SOFTWARE.
   6:main.c        ****  *
   7:main.c        ****  * CONFIDENTIAL AND PROPRIETARY INFORMATION
   8:main.c        ****  * WHICH IS THE PROPERTY OF your company.
   9:main.c        ****  *
  10:main.c        ****  * ========================================
  11:main.c        **** */
  12:main.c        **** 
  13:main.c        **** /* TODO:
  14:main.c        ****     - Add sync for internal timekeeping
  15:main.c        ****     - Update internal time function, time dependent (dont need to update hrs 1x/sec)
  16:main.c        ****     - Check if lost power
  17:main.c        **** */
  18:main.c        **** #include "project.h"
  19:main.c        **** #include "..\Schakelklok.cydsn\Schakelklok_types.h"
  20:main.c        **** #include <stdlib.h>
  21:main.c        **** #include <stdio.h>
  22:main.c        **** #include <string.h>
  23:main.c        **** 
  24:main.c        **** #define RTC_ADDRESS 0x68
  25:main.c        **** #define RTC_READ 1
  26:main.c        **** #define RTC_Write 0
  27:main.c        **** 
  28:main.c        **** #define RTC_ADDR_SECS 0x00
  29:main.c        **** #define RTC_ADDR_MINS 0x01
  30:main.c        **** #define RTC_ADDR_HRS 0x02
ARM GAS  C:\Users\laure\AppData\Local\Temp\ccHaU8kd.s 			page 2


  31:main.c        **** #define RTC_ADDR_DAY 0x03
  32:main.c        **** #define RTC_ADDR_DATE 0x04
  33:main.c        **** #define RTC_ADDR_MON 0x05
  34:main.c        **** #define RTC_ADDR_YR 0x06
  35:main.c        **** 
  36:main.c        **** #define RTC_ADDR_ALARM1_SECS 0x07
  37:main.c        **** #define RTC_ADDR_ALARM1_MINS 0x08
  38:main.c        **** #define RTC_ADDR_ALARM1_HRS 0x09
  39:main.c        **** #define RTC_ADDR_ALARM1_DAYDATE 0x0A 
  40:main.c        **** 
  41:main.c        **** #define RTC_ADDR_ALARM2_MINS 0x0B
  42:main.c        **** #define RTC_ADDR_ALARM2_HRS 0x0C
  43:main.c        **** #define RTC_ADDR_ALARM2_DAYDATE 0x0D 
  44:main.c        **** 
  45:main.c        **** #define RTC_ADDR_CONTR1 0x0E
  46:main.c        **** #define RTC_ADDR_CONTR2 0x0F 
  47:main.c        **** 
  48:main.c        **** #define RTC_ADDR_SRAM_START 0x14
  49:main.c        **** #define RTC_ADDR_SRAM_END 0xFF
  50:main.c        **** 
  51:main.c        **** #define RTC_HOURS_12_24_shift 6
  52:main.c        **** #define RTC_HOURS_12 1<<RTC_HOURS_12_24_shift
  53:main.c        **** 
  54:main.c        **** #define RTC_SRAM_MILLENIUM_CENTURY 0x14
  55:main.c        **** 
  56:main.c        **** void UART_print(char label[], int val, int radix);
  57:main.c        **** 
  58:main.c        **** void RTC_Init();
  59:main.c        **** void RTC_Reset();
  60:main.c        **** 
  61:main.c        **** uint8_t RTC_GetSeconds();
  62:main.c        **** uint8_t RTC_GetMinutes();
  63:main.c        **** uint8_t RTC_GetHours();
  64:main.c        **** void RTC_SetSeconds(uint8_t t);
  65:main.c        **** void RTC_SetMinutes(uint8_t t);
  66:main.c        **** void RTC_SetHours(uint8_t hrs);
  67:main.c        **** 
  68:main.c        **** uint16_t GetMillis();
  69:main.c        **** void SetMillis(uint16_t millis);
  70:main.c        **** uint8_t RTC_GetDay();
  71:main.c        **** uint8_t RTC_GetDate();
  72:main.c        **** uint8_t RTC_GetMonth();
  73:main.c        **** uint16_t RTC_GetYear();
  74:main.c        **** void RTC_SetDay(uint8_t day);
  75:main.c        **** void RTC_SetDate(uint8_t date);
  76:main.c        **** void RTC_SetMonth(uint8_t month);
  77:main.c        **** void RTC_SetYear(uint16_t year);
  78:main.c        **** 
  79:main.c        **** UBYTE RTC_ReadAddr(UBYTE address);
  80:main.c        **** void RTC_WriteAddr(UBYTE address, UBYTE value);
  81:main.c        **** 
  82:main.c        **** void TimeToString(TIME_T time, char buf[12]);
  83:main.c        **** void DateToString(DATE_T date, char* buf);
  84:main.c        **** 
  85:main.c        **** void Time_Init(volatile TIME_T* time, volatile DATE_T* date);
  86:main.c        **** void Time_doIncrement(TIME_T* time, DATE_T* date);
  87:main.c        **** void Time_CalibrateMillis();
ARM GAS  C:\Users\laure\AppData\Local\Temp\ccHaU8kd.s 			page 3


  88:main.c        **** void incrMins(TIME_T* time, DATE_T* date);
  89:main.c        **** void incrHrs(TIME_T* time, DATE_T* date);
  90:main.c        **** void incrDate(TIME_T* time, DATE_T* date);
  91:main.c        **** void incrMonth(TIME_T* time, DATE_T* date);
  92:main.c        **** 
  93:main.c        **** // DEV TODO REMOVE
  94:main.c        **** volatile int MS_CALIB_FLAG = 0;
  95:main.c        **** volatile int INCR_TIME_FLAG = 0;
  96:main.c        **** 
  97:main.c        **** // ========================================
  98:main.c        **** //   Global volatiles initialisation
  99:main.c        **** // ========================================   
 100:main.c        **** TIME_T systime;
 101:main.c        **** DATE_T sysdate;
 102:main.c        **** 
 103:main.c        **** // Interrupts
 104:main.c        **** // ========================================
 105:main.c        **** //   Millisecond calibration interrupt
 106:main.c        **** //      Gets capture value when 1s signal from RTC is passed, uses this to determine if counter is 
 107:main.c        **** // ========================================
 108:main.c        **** CY_ISR(MS_CALIBRATION_INTVECT){
  28              		.loc 1 108 0
  29              		.cfi_startproc
  30              		@ args = 0, pretend = 0, frame = 0
  31              		@ frame_needed = 0, uses_anonymous_args = 0
  32 0000 08B5     		push	{r3, lr}
  33              		.cfi_def_cfa_offset 8
  34              		.cfi_offset 3, -8
  35              		.cfi_offset 14, -4
 109:main.c        ****     // TODO add to queue
 110:main.c        ****     MS_CALIB_FLAG = 1; 
  36              		.loc 1 110 0
  37 0002 0122     		movs	r2, #1
  38 0004 024B     		ldr	r3, .L3
  39 0006 1A60     		str	r2, [r3]
 111:main.c        ****     MILLIS_COUNTER_CAPT_INT_ClearPending();
  40              		.loc 1 111 0
  41 0008 FFF7FEFF 		bl	MILLIS_COUNTER_CAPT_INT_ClearPending
  42              	.LVL0:
  43 000c 08BD     		pop	{r3, pc}
  44              	.L4:
  45 000e 00BF     		.align	2
  46              	.L3:
  47 0010 00000000 		.word	.LANCHOR0
  48              		.cfi_endproc
  49              	.LFE64:
  50              		.size	MS_CALIBRATION_INTVECT, .-MS_CALIBRATION_INTVECT
  51              		.section	.text.SEC_CTR_TC_INTVECT,"ax",%progbits
  52              		.align	2
  53              		.global	SEC_CTR_TC_INTVECT
  54              		.thumb
  55              		.thumb_func
  56              		.type	SEC_CTR_TC_INTVECT, %function
  57              	SEC_CTR_TC_INTVECT:
  58              	.LFB65:
 112:main.c        **** }
 113:main.c        **** 
ARM GAS  C:\Users\laure\AppData\Local\Temp\ccHaU8kd.s 			page 4


 114:main.c        **** // Whenever second counter completes, meaning 1min has passed
 115:main.c        **** CY_ISR(SEC_CTR_TC_INTVECT){
  59              		.loc 1 115 0
  60              		.cfi_startproc
  61              		@ args = 0, pretend = 0, frame = 0
  62              		@ frame_needed = 0, uses_anonymous_args = 0
  63 0000 08B5     		push	{r3, lr}
  64              		.cfi_def_cfa_offset 8
  65              		.cfi_offset 3, -8
  66              		.cfi_offset 14, -4
 116:main.c        ****     // TODO  add to queue
 117:main.c        ****     INCR_TIME_FLAG = 1;
  67              		.loc 1 117 0
  68 0002 0122     		movs	r2, #1
  69 0004 024B     		ldr	r3, .L7
  70 0006 5A60     		str	r2, [r3, #4]
 118:main.c        ****     SEC_CTR_TC_INT_ClearPending();
  71              		.loc 1 118 0
  72 0008 FFF7FEFF 		bl	SEC_CTR_TC_INT_ClearPending
  73              	.LVL1:
  74 000c 08BD     		pop	{r3, pc}
  75              	.L8:
  76 000e 00BF     		.align	2
  77              	.L7:
  78 0010 00000000 		.word	.LANCHOR0
  79              		.cfi_endproc
  80              	.LFE65:
  81              		.size	SEC_CTR_TC_INTVECT, .-SEC_CTR_TC_INTVECT
  82              		.section	.text.incrMonth,"ax",%progbits
  83              		.align	2
  84              		.global	incrMonth
  85              		.thumb
  86              		.thumb_func
  87              		.type	incrMonth, %function
  88              	incrMonth:
  89              	.LFB71:
 119:main.c        **** }
 120:main.c        **** 
 121:main.c        **** 
 122:main.c        **** // -========================================================-
 123:main.c        **** //
 124:main.c        **** //                          M A I N
 125:main.c        **** //
 126:main.c        **** // -========================================================-
 127:main.c        **** int main(void)
 128:main.c        **** {  
 129:main.c        ****     // ========================================
 130:main.c        ****     //   Interrupt setup
 131:main.c        ****     // ========================================
 132:main.c        ****     CyGlobalIntEnable; /* Enable global interrupts. */
 133:main.c        ****     // Disable specific interrupts for setup
 134:main.c        ****     MILLIS_COUNTER_CAPT_INT_Disable();
 135:main.c        ****     // Set ms ctr to interrupt on capture
 136:main.c        ****     MILLIS_COUNTER_CAPT_INT_SetVector(MS_CALIBRATION_INTVECT);
 137:main.c        ****     SEC_CTR_TC_INT_SetVector(SEC_CTR_TC_INTVECT);
 138:main.c        ****     
 139:main.c        ****     // ========================================
ARM GAS  C:\Users\laure\AppData\Local\Temp\ccHaU8kd.s 			page 5


 140:main.c        ****     //   Communication setup
 141:main.c        ****     // ========================================  
 142:main.c        ****     I2C_Start();
 143:main.c        ****     
 144:main.c        ****     
 145:main.c        ****     // ========================================
 146:main.c        ****     //   DEBUG
 147:main.c        ****     // ======================================== 
 148:main.c        ****     // 0 CTR_TC
 149:main.c        ****     // 1 SQW edge
 150:main.c        ****     
 151:main.c        ****     MILLIS_CTR_CAPTSEL_Write(0x0);
 152:main.c        ****     
 153:main.c        ****     
 154:main.c        ****     // ========================================
 155:main.c        ****     //   Var initialisation
 156:main.c        ****     // ========================================    
 157:main.c        ****     char strbuf[100];
 158:main.c        **** 
 159:main.c        ****     DebugLED_Write(0x0);
 160:main.c        ****     // ========================================
 161:main.c        ****     //   Timekeeping and RTC setup
 162:main.c        ****     // ========================================  
 163:main.c        ****     Time_Init(&systime, &sysdate);
 164:main.c        ****     
 165:main.c        ****     DebugLED_Write(0x1);
 166:main.c        **** 
 167:main.c        ****     
 168:main.c        ****     
 169:main.c        ****     USBUART_Start(0, USBUART_5V_OPERATION);
 170:main.c        ****     while(USBUART_GetConfiguration()==0);
 171:main.c        **** 
 172:main.c        ****     DebugLED_Write(0x0);
 173:main.c        **** 
 174:main.c        ****     // Re-enable interrupts
 175:main.c        ****     MILLIS_COUNTER_CAPT_INT_Enable();
 176:main.c        ****     SEC_CTR_TC_INT_Enable();
 177:main.c        ****     
 178:main.c        ****     
 179:main.c        ****         
 180:main.c        ****     for(;;)
 181:main.c        ****     {
 182:main.c        ****         
 183:main.c        ****         /*
 184:main.c        ****         if(BUTTONPRESS_REG_Read()){
 185:main.c        ****             MILLIS_CTR_CAPTSEL_Write(~MILLIS_CTR_CAPTSEL_Read());
 186:main.c        ****             DebugLED_Write(~DebugLED_Read());
 187:main.c        ****         }*/
 188:main.c        ****         
 189:main.c        ****         if(MS_CALIB_FLAG){
 190:main.c        ****             MS_CALIB_FLAG = 0;
 191:main.c        ****             Time_CalibrateMillis();
 192:main.c        ****         }
 193:main.c        ****         if(INCR_TIME_FLAG){
 194:main.c        ****             INCR_TIME_FLAG = 0;
 195:main.c        ****             incrMins(&systime, &sysdate);
 196:main.c        ****             DebugLED_Write(~DebugLED_Read());
ARM GAS  C:\Users\laure\AppData\Local\Temp\ccHaU8kd.s 			page 6


 197:main.c        ****         }
 198:main.c        ****         
 199:main.c        ****         systime.seconds = SEC_COUNTER_ReadCounter();
 200:main.c        ****         systime.ms = GetMillis();
 201:main.c        ****         
 202:main.c        ****         USBUART_PutString("\r\n");
 203:main.c        ****         TimeToString(systime, strbuf);
 204:main.c        ****         USBUART_PutString(strbuf);
 205:main.c        ****         DateToString(sysdate, strbuf);
 206:main.c        ****         USBUART_PutString(strbuf);
 207:main.c        ****     
 208:main.c        ****         CyDelay(1000);
 209:main.c        ****     }
 210:main.c        **** }
 211:main.c        **** 
 212:main.c        **** void Time_Init(volatile TIME_T* time, volatile DATE_T* date){
 213:main.c        ****     // ==============   RTC and time   ================
 214:main.c        ****     RTC_Init();
 215:main.c        ****     time->ms = 0;
 216:main.c        ****     time->seconds = RTC_GetSeconds();
 217:main.c        ****     time->minutes = RTC_GetMinutes();
 218:main.c        ****     time->hours = RTC_GetHours();
 219:main.c        ****     
 220:main.c        ****     date->date = RTC_GetDate();
 221:main.c        ****     date->day = RTC_GetDay();
 222:main.c        ****     date->month = RTC_GetMonth();
 223:main.c        ****     date->year = RTC_GetYear();
 224:main.c        ****     
 225:main.c        ****     // ==============   Main Counters   ================
 226:main.c        ****     MILLIS_COUNTER_WritePeriod(3000000);
 227:main.c        ****     MILLIS_COUNTER_Start();
 228:main.c        ****     
 229:main.c        ****     SEC_COUNTER_Start();
 230:main.c        ****     SEC_COUNTER_Stop();
 231:main.c        ****     SEC_COUNTER_WriteCounter(RTC_GetSeconds());
 232:main.c        ****     SEC_COUNTER_Enable();
 233:main.c        ****     CTR_SYNC_EN_Write(0xFF); // Start time counters
 234:main.c        ****     
 235:main.c        ****     // ==============   Calibration Counter   ================
 236:main.c        ****     RTC_SEC_COUNTER_Start(); // Counter to calibrate milliseconds
 237:main.c        **** }
 238:main.c        **** 
 239:main.c        **** void incrMins(TIME_T* time, DATE_T* date){
 240:main.c        ****     if(time->minutes < 59){
 241:main.c        ****         time->minutes++;
 242:main.c        ****     }
 243:main.c        ****     else{
 244:main.c        ****         time->minutes = 0;
 245:main.c        ****         incrHrs(time, date);
 246:main.c        ****     }
 247:main.c        **** }
 248:main.c        **** void incrHrs(TIME_T* time, DATE_T* date){
 249:main.c        ****     if(time->hours < 23){
 250:main.c        ****         time->hours++;
 251:main.c        ****     }
 252:main.c        ****     else{
 253:main.c        ****         time->hours = 0;
ARM GAS  C:\Users\laure\AppData\Local\Temp\ccHaU8kd.s 			page 7


 254:main.c        ****         incrDate(time, date);
 255:main.c        ****     }
 256:main.c        **** }
 257:main.c        **** void incrDate(TIME_T* time, DATE_T* date){
 258:main.c        ****     uint8_t daysPerMonth[12] = {31, 28, 31, 30, 31, 30, 31, 30, 31, 30, 31};
 259:main.c        ****     if(date->year%4 == 0)
 260:main.c        ****         daysPerMonth[1] = 29;
 261:main.c        ****         
 262:main.c        ****     if(date->date < daysPerMonth[date->month-1]){
 263:main.c        ****         date->date++;
 264:main.c        ****     }
 265:main.c        ****     else{
 266:main.c        ****         date->date = 1;
 267:main.c        ****         incrMonth(time, date);
 268:main.c        ****     }
 269:main.c        ****     
 270:main.c        ****     if(date->day < 7)
 271:main.c        ****         date->day++;
 272:main.c        ****     else
 273:main.c        ****         date->day = 1;
 274:main.c        **** }
 275:main.c        **** void incrMonth(TIME_T* time, DATE_T* date){
  90              		.loc 1 275 0
  91              		.cfi_startproc
  92              		@ args = 0, pretend = 0, frame = 0
  93              		@ frame_needed = 0, uses_anonymous_args = 0
  94              		@ link register save eliminated.
  95              	.LVL2:
 276:main.c        ****     if(date->month < 12){
  96              		.loc 1 276 0
  97 0000 8B78     		ldrb	r3, [r1, #2]	@ zero_extendqisi2
  98 0002 0B2B     		cmp	r3, #11
  99 0004 02D8     		bhi	.L10
 277:main.c        ****         date->month++;
 100              		.loc 1 277 0
 101 0006 0133     		adds	r3, r3, #1
 102 0008 8B70     		strb	r3, [r1, #2]
 103 000a 7047     		bx	lr
 104              	.L10:
 278:main.c        ****     }
 279:main.c        ****     else{
 280:main.c        ****         date->month = 1;
 105              		.loc 1 280 0
 106 000c 0123     		movs	r3, #1
 107 000e 8B70     		strb	r3, [r1, #2]
 281:main.c        ****         date->year++;
 108              		.loc 1 281 0
 109 0010 8B88     		ldrh	r3, [r1, #4]
 110 0012 0133     		adds	r3, r3, #1
 111 0014 8B80     		strh	r3, [r1, #4]	@ movhi
 112 0016 7047     		bx	lr
 113              		.cfi_endproc
 114              	.LFE71:
 115              		.size	incrMonth, .-incrMonth
 116              		.section	.text.incrDate,"ax",%progbits
 117              		.align	2
 118              		.global	incrDate
ARM GAS  C:\Users\laure\AppData\Local\Temp\ccHaU8kd.s 			page 8


 119              		.thumb
 120              		.thumb_func
 121              		.type	incrDate, %function
 122              	incrDate:
 123              	.LFB70:
 257:main.c        ****     uint8_t daysPerMonth[12] = {31, 28, 31, 30, 31, 30, 31, 30, 31, 30, 31};
 124              		.loc 1 257 0
 125              		.cfi_startproc
 126              		@ args = 0, pretend = 0, frame = 16
 127              		@ frame_needed = 0, uses_anonymous_args = 0
 128              	.LVL3:
 129 0000 10B5     		push	{r4, lr}
 130              		.cfi_def_cfa_offset 8
 131              		.cfi_offset 4, -8
 132              		.cfi_offset 14, -4
 133 0002 84B0     		sub	sp, sp, #16
 134              		.cfi_def_cfa_offset 24
 135 0004 0C46     		mov	r4, r1
 258:main.c        ****     if(date->year%4 == 0)
 136              		.loc 1 258 0
 137 0006 0023     		movs	r3, #0
 138 0008 0393     		str	r3, [sp, #12]
 139 000a 1F23     		movs	r3, #31
 140 000c 8DF80430 		strb	r3, [sp, #4]
 141 0010 1C22     		movs	r2, #28
 142 0012 8DF80520 		strb	r2, [sp, #5]
 143 0016 8DF80630 		strb	r3, [sp, #6]
 144 001a 1E22     		movs	r2, #30
 145 001c 8DF80720 		strb	r2, [sp, #7]
 146 0020 8DF80830 		strb	r3, [sp, #8]
 147 0024 8DF80920 		strb	r2, [sp, #9]
 148 0028 8DF80A30 		strb	r3, [sp, #10]
 149 002c 8DF80B20 		strb	r2, [sp, #11]
 150 0030 8DF80C30 		strb	r3, [sp, #12]
 151 0034 8DF80D20 		strb	r2, [sp, #13]
 152 0038 8DF80E30 		strb	r3, [sp, #14]
 259:main.c        ****         daysPerMonth[1] = 29;
 153              		.loc 1 259 0
 154 003c 8B88     		ldrh	r3, [r1, #4]
 155 003e 13F0030F 		tst	r3, #3
 156 0042 02D1     		bne	.L13
 260:main.c        ****         
 157              		.loc 1 260 0
 158 0044 1D23     		movs	r3, #29
 159 0046 8DF80530 		strb	r3, [sp, #5]
 160              	.L13:
 262:main.c        ****         date->date++;
 161              		.loc 1 262 0
 162 004a 6278     		ldrb	r2, [r4, #1]	@ zero_extendqisi2
 163 004c A378     		ldrb	r3, [r4, #2]	@ zero_extendqisi2
 164 004e 013B     		subs	r3, r3, #1
 165 0050 04A9     		add	r1, sp, #16
 166              	.LVL4:
 167 0052 0B44     		add	r3, r3, r1
 168 0054 13F80C3C 		ldrb	r3, [r3, #-12]	@ zero_extendqisi2
 169 0058 9A42     		cmp	r2, r3
 170 005a 02D2     		bcs	.L14
ARM GAS  C:\Users\laure\AppData\Local\Temp\ccHaU8kd.s 			page 9


 263:main.c        ****     }
 171              		.loc 1 263 0
 172 005c 0132     		adds	r2, r2, #1
 173 005e 6270     		strb	r2, [r4, #1]
 174 0060 04E0     		b	.L15
 175              	.L14:
 266:main.c        ****         incrMonth(time, date);
 176              		.loc 1 266 0
 177 0062 0123     		movs	r3, #1
 178 0064 6370     		strb	r3, [r4, #1]
 267:main.c        ****     }
 179              		.loc 1 267 0
 180 0066 2146     		mov	r1, r4
 181 0068 FFF7FEFF 		bl	incrMonth
 182              	.LVL5:
 183              	.L15:
 270:main.c        ****         date->day++;
 184              		.loc 1 270 0
 185 006c 2378     		ldrb	r3, [r4]	@ zero_extendqisi2
 186 006e 062B     		cmp	r3, #6
 187 0070 02D8     		bhi	.L16
 271:main.c        ****     else
 188              		.loc 1 271 0
 189 0072 0133     		adds	r3, r3, #1
 190 0074 2370     		strb	r3, [r4]
 191 0076 01E0     		b	.L12
 192              	.L16:
 273:main.c        **** }
 193              		.loc 1 273 0
 194 0078 0123     		movs	r3, #1
 195 007a 2370     		strb	r3, [r4]
 196              	.L12:
 274:main.c        **** void incrMonth(TIME_T* time, DATE_T* date){
 197              		.loc 1 274 0
 198 007c 04B0     		add	sp, sp, #16
 199              		.cfi_def_cfa_offset 8
 200              		@ sp needed
 201 007e 10BD     		pop	{r4, pc}
 202              		.cfi_endproc
 203              	.LFE70:
 204              		.size	incrDate, .-incrDate
 205              		.section	.text.incrHrs,"ax",%progbits
 206              		.align	2
 207              		.global	incrHrs
 208              		.thumb
 209              		.thumb_func
 210              		.type	incrHrs, %function
 211              	incrHrs:
 212              	.LFB69:
 248:main.c        ****     if(time->hours < 23){
 213              		.loc 1 248 0
 214              		.cfi_startproc
 215              		@ args = 0, pretend = 0, frame = 0
 216              		@ frame_needed = 0, uses_anonymous_args = 0
 217              	.LVL6:
 218 0000 08B5     		push	{r3, lr}
 219              		.cfi_def_cfa_offset 8
ARM GAS  C:\Users\laure\AppData\Local\Temp\ccHaU8kd.s 			page 10


 220              		.cfi_offset 3, -8
 221              		.cfi_offset 14, -4
 249:main.c        ****         time->hours++;
 222              		.loc 1 249 0
 223 0002 0378     		ldrb	r3, [r0]	@ zero_extendqisi2
 224 0004 162B     		cmp	r3, #22
 225 0006 02D8     		bhi	.L20
 250:main.c        ****     }
 226              		.loc 1 250 0
 227 0008 0133     		adds	r3, r3, #1
 228 000a 0370     		strb	r3, [r0]
 229 000c 08BD     		pop	{r3, pc}
 230              	.L20:
 253:main.c        ****         incrDate(time, date);
 231              		.loc 1 253 0
 232 000e 0023     		movs	r3, #0
 233 0010 0370     		strb	r3, [r0]
 254:main.c        ****     }
 234              		.loc 1 254 0
 235 0012 FFF7FEFF 		bl	incrDate
 236              	.LVL7:
 237 0016 08BD     		pop	{r3, pc}
 238              		.cfi_endproc
 239              	.LFE69:
 240              		.size	incrHrs, .-incrHrs
 241              		.section	.text.incrMins,"ax",%progbits
 242              		.align	2
 243              		.global	incrMins
 244              		.thumb
 245              		.thumb_func
 246              		.type	incrMins, %function
 247              	incrMins:
 248              	.LFB68:
 239:main.c        ****     if(time->minutes < 59){
 249              		.loc 1 239 0
 250              		.cfi_startproc
 251              		@ args = 0, pretend = 0, frame = 0
 252              		@ frame_needed = 0, uses_anonymous_args = 0
 253              	.LVL8:
 254 0000 08B5     		push	{r3, lr}
 255              		.cfi_def_cfa_offset 8
 256              		.cfi_offset 3, -8
 257              		.cfi_offset 14, -4
 240:main.c        ****         time->minutes++;
 258              		.loc 1 240 0
 259 0002 4378     		ldrb	r3, [r0, #1]	@ zero_extendqisi2
 260 0004 3A2B     		cmp	r3, #58
 261 0006 02D8     		bhi	.L24
 241:main.c        ****     }
 262              		.loc 1 241 0
 263 0008 0133     		adds	r3, r3, #1
 264 000a 4370     		strb	r3, [r0, #1]
 265 000c 08BD     		pop	{r3, pc}
 266              	.L24:
 244:main.c        ****         incrHrs(time, date);
 267              		.loc 1 244 0
 268 000e 0023     		movs	r3, #0
ARM GAS  C:\Users\laure\AppData\Local\Temp\ccHaU8kd.s 			page 11


 269 0010 4370     		strb	r3, [r0, #1]
 245:main.c        ****     }
 270              		.loc 1 245 0
 271 0012 FFF7FEFF 		bl	incrHrs
 272              	.LVL9:
 273 0016 08BD     		pop	{r3, pc}
 274              		.cfi_endproc
 275              	.LFE68:
 276              		.size	incrMins, .-incrMins
 277              		.section	.text.Time_CalibrateMillis,"ax",%progbits
 278              		.align	2
 279              		.global	Time_CalibrateMillis
 280              		.thumb
 281              		.thumb_func
 282              		.type	Time_CalibrateMillis, %function
 283              	Time_CalibrateMillis:
 284              	.LFB72:
 282:main.c        ****     }
 283:main.c        **** }
 284:main.c        **** 
 285:main.c        **** // TODO make this whole thing work: issue is with oneshot calibration timer
 286:main.c        **** void Time_CalibrateMillis(){
 285              		.loc 1 286 0
 286              		.cfi_startproc
 287              		@ args = 0, pretend = 0, frame = 200
 288              		@ frame_needed = 0, uses_anonymous_args = 0
 289 0000 30B5     		push	{r4, r5, lr}
 290              		.cfi_def_cfa_offset 12
 291              		.cfi_offset 4, -12
 292              		.cfi_offset 5, -8
 293              		.cfi_offset 14, -4
 294 0002 B3B0     		sub	sp, sp, #204
 295              		.cfi_def_cfa_offset 216
 287:main.c        ****     uint32_t ms_cur = MILLIS_COUNTER_ReadCapture();
 296              		.loc 1 287 0
 297 0004 FFF7FEFF 		bl	MILLIS_COUNTER_ReadCapture
 298              	.LVL10:
 299 0008 0446     		mov	r4, r0
 300              	.LVL11:
 288:main.c        ****     uint32_t millis_period = MILLIS_COUNTER_ReadPeriod();
 301              		.loc 1 288 0
 302 000a FFF7FEFF 		bl	MILLIS_COUNTER_ReadPeriod
 303              	.LVL12:
 304 000e 0546     		mov	r5, r0
 305              	.LVL13:
 289:main.c        ****     uint32_t millis_newperiod;
 290:main.c        ****     int32_t  error;
 291:main.c        ****     MILLIS_COUNTER_ClearFIFO();
 306              		.loc 1 291 0
 307 0010 FFF7FEFF 		bl	MILLIS_COUNTER_ClearFIFO
 308              	.LVL14:
 292:main.c        ****     
 293:main.c        ****     char strbuf[200];
 294:main.c        ****     if(ms_cur == millis_period){
 309              		.loc 1 294 0
 310 0014 AC42     		cmp	r4, r5
 311 0016 10D0     		beq	.L27
ARM GAS  C:\Users\laure\AppData\Local\Temp\ccHaU8kd.s 			page 12


 295:main.c        ****         //sprintf(strbuf, "Cur:\t%lu\r\nPer:\t%lu \r\nEqual.\r\n\n", ms_cur, millis_period, ms_cur,
 296:main.c        ****         return;
 297:main.c        ****     }
 298:main.c        ****     else if(ms_cur > (millis_period/2)){
 312              		.loc 1 298 0
 313 0018 B4EB550F 		cmp	r4, r5, lsr #1
 314 001c 01D9     		bls	.L29
 299:main.c        ****         // If timer is running too fast (down counter) it needs a larger period
 300:main.c        ****         error = millis_period - ms_cur;
 315              		.loc 1 300 0
 316 001e 2A1B     		subs	r2, r5, r4
 317              	.LVL15:
 318 0020 00E0     		b	.L30
 319              	.LVL16:
 320              	.L29:
 301:main.c        ****     }
 302:main.c        ****     else {
 303:main.c        ****         // If timer is running too slow (down counter) it needs a lower period
 304:main.c        ****         error = -ms_cur;
 321              		.loc 1 304 0
 322 0022 6242     		negs	r2, r4
 323              	.LVL17:
 324              	.L30:
 305:main.c        ****     }
 306:main.c        ****     
 307:main.c        ****     millis_newperiod = millis_period + error;
 325              		.loc 1 307 0
 326 0024 1544     		add	r5, r5, r2
 327              	.LVL18:
 308:main.c        ****     //sprintf(strbuf, "Cur:\t%lu\r\nPer:\t%lu\r\nError:\t%d\r\n %lu + %d = %lu\r\n\n", ms_cur, mill
 309:main.c        ****     sprintf(strbuf, "%d\r\n", error);
 328              		.loc 1 309 0
 329 0026 0649     		ldr	r1, .L33
 330 0028 6846     		mov	r0, sp
 331 002a FFF7FEFF 		bl	sprintf
 332              	.LVL19:
 310:main.c        ****     USBUART_PutString(strbuf);
 333              		.loc 1 310 0
 334 002e 6846     		mov	r0, sp
 335 0030 FFF7FEFF 		bl	USBUART_PutString
 336              	.LVL20:
 311:main.c        ****     
 312:main.c        ****     // TODO add accuracy margin
 313:main.c        ****     // TODO ADD P(ID)
 314:main.c        ****  
 315:main.c        ****     MILLIS_COUNTER_WritePeriod(millis_newperiod); 
 337              		.loc 1 315 0
 338 0034 2846     		mov	r0, r5
 339 0036 FFF7FEFF 		bl	MILLIS_COUNTER_WritePeriod
 340              	.LVL21:
 341              	.L27:
 316:main.c        **** }
 342              		.loc 1 316 0
 343 003a 33B0     		add	sp, sp, #204
 344              		.cfi_def_cfa_offset 12
 345              		@ sp needed
 346 003c 30BD     		pop	{r4, r5, pc}
ARM GAS  C:\Users\laure\AppData\Local\Temp\ccHaU8kd.s 			page 13


 347              	.LVL22:
 348              	.L34:
 349 003e 00BF     		.align	2
 350              	.L33:
 351 0040 00000000 		.word	.LC8
 352              		.cfi_endproc
 353              	.LFE72:
 354              		.size	Time_CalibrateMillis, .-Time_CalibrateMillis
 355              		.section	.text.UART_print,"ax",%progbits
 356              		.align	2
 357              		.global	UART_print
 358              		.thumb
 359              		.thumb_func
 360              		.type	UART_print, %function
 361              	UART_print:
 362              	.LFB73:
 317:main.c        **** 
 318:main.c        **** void UART_print(char label[], int val, int radix){
 363              		.loc 1 318 0
 364              		.cfi_startproc
 365              		@ args = 0, pretend = 0, frame = 104
 366              		@ frame_needed = 0, uses_anonymous_args = 0
 367              	.LVL23:
 368 0000 00B5     		push	{lr}
 369              		.cfi_def_cfa_offset 4
 370              		.cfi_offset 14, -4
 371 0002 9BB0     		sub	sp, sp, #108
 372              		.cfi_def_cfa_offset 112
 319:main.c        ****     char strbuf[100];
 320:main.c        ****     char ibuf[30];
 321:main.c        ****     //itoa(val, ibuf, radix);
 322:main.c        ****     sprintf(strbuf, "%s: %u\r\n", label, val);
 373              		.loc 1 322 0
 374 0004 0B46     		mov	r3, r1
 375 0006 0246     		mov	r2, r0
 376              	.LVL24:
 377 0008 0449     		ldr	r1, .L37
 378              	.LVL25:
 379 000a 01A8     		add	r0, sp, #4
 380              	.LVL26:
 381 000c FFF7FEFF 		bl	sprintf
 382              	.LVL27:
 323:main.c        ****     USBUART_PutString(strbuf);
 383              		.loc 1 323 0
 384 0010 01A8     		add	r0, sp, #4
 385 0012 FFF7FEFF 		bl	USBUART_PutString
 386              	.LVL28:
 324:main.c        **** }
 387              		.loc 1 324 0
 388 0016 1BB0     		add	sp, sp, #108
 389              		.cfi_def_cfa_offset 4
 390              		@ sp needed
 391 0018 5DF804FB 		ldr	pc, [sp], #4
 392              	.L38:
 393              		.align	2
 394              	.L37:
 395 001c 08000000 		.word	.LC9
ARM GAS  C:\Users\laure\AppData\Local\Temp\ccHaU8kd.s 			page 14


 396              		.cfi_endproc
 397              	.LFE73:
 398              		.size	UART_print, .-UART_print
 399              		.section	.text.TimeToString,"ax",%progbits
 400              		.align	2
 401              		.global	TimeToString
 402              		.thumb
 403              		.thumb_func
 404              		.type	TimeToString, %function
 405              	TimeToString:
 406              	.LFB74:
 325:main.c        **** void TimeToString(TIME_T time, char* buf){
 407              		.loc 1 325 0
 408              		.cfi_startproc
 409              		@ args = 0, pretend = 0, frame = 8
 410              		@ frame_needed = 0, uses_anonymous_args = 0
 411              	.LVL29:
 412 0000 10B5     		push	{r4, lr}
 413              		.cfi_def_cfa_offset 8
 414              		.cfi_offset 4, -8
 415              		.cfi_offset 14, -4
 416 0002 84B0     		sub	sp, sp, #16
 417              		.cfi_def_cfa_offset 24
 418 0004 04AB     		add	r3, sp, #16
 419 0006 03E90300 		stmdb	r3, {r0, r1}
 420 000a 1046     		mov	r0, r2
 326:main.c        **** 	sprintf(buf, "%02d:%02d:%02d:%03d\r\n", time.hours, time.minutes, time.seconds, time.ms);
 421              		.loc 1 326 0
 422 000c 9DF80820 		ldrb	r2, [sp, #8]	@ zero_extendqisi2
 423              	.LVL30:
 424 0010 9DF80930 		ldrb	r3, [sp, #9]	@ zero_extendqisi2
 425 0014 9DF80A10 		ldrb	r1, [sp, #10]	@ zero_extendqisi2
 426 0018 BDF80C40 		ldrh	r4, [sp, #12]
 427 001c 0194     		str	r4, [sp, #4]
 428 001e 0091     		str	r1, [sp]
 429 0020 0249     		ldr	r1, .L41
 430 0022 FFF7FEFF 		bl	sprintf
 431              	.LVL31:
 327:main.c        **** }
 432              		.loc 1 327 0
 433 0026 04B0     		add	sp, sp, #16
 434              		.cfi_def_cfa_offset 8
 435              		@ sp needed
 436 0028 10BD     		pop	{r4, pc}
 437              	.L42:
 438 002a 00BF     		.align	2
 439              	.L41:
 440 002c 14000000 		.word	.LC10
 441              		.cfi_endproc
 442              	.LFE74:
 443              		.size	TimeToString, .-TimeToString
 444              		.section	.text.DateToString,"ax",%progbits
 445              		.align	2
 446              		.global	DateToString
 447              		.thumb
 448              		.thumb_func
 449              		.type	DateToString, %function
ARM GAS  C:\Users\laure\AppData\Local\Temp\ccHaU8kd.s 			page 15


 450              	DateToString:
 451              	.LFB75:
 328:main.c        **** void DateToString(DATE_T date, char* buf){
 452              		.loc 1 328 0
 453              		.cfi_startproc
 454              		@ args = 0, pretend = 0, frame = 40
 455              		@ frame_needed = 0, uses_anonymous_args = 0
 456              	.LVL32:
 457 0000 70B5     		push	{r4, r5, r6, lr}
 458              		.cfi_def_cfa_offset 16
 459              		.cfi_offset 4, -16
 460              		.cfi_offset 5, -12
 461              		.cfi_offset 6, -8
 462              		.cfi_offset 14, -4
 463 0002 8CB0     		sub	sp, sp, #48
 464              		.cfi_def_cfa_offset 64
 465 0004 02AB     		add	r3, sp, #8
 466 0006 83E80300 		stmia	r3, {r0, r1}
 467 000a 1646     		mov	r6, r2
 329:main.c        ****     char* dayRef[7] = {"Mon", "Tue", "Wed", "Thu", "Fri", "Sat", "Sun"};
 468              		.loc 1 329 0
 469 000c 05AC     		add	r4, sp, #20
 470 000e 0E4D     		ldr	r5, .L45
 471 0010 0FCD     		ldmia	r5!, {r0, r1, r2, r3}
 472              	.LVL33:
 473 0012 0FC4     		stmia	r4!, {r0, r1, r2, r3}
 474 0014 95E80700 		ldmia	r5, {r0, r1, r2}
 475 0018 84E80700 		stmia	r4, {r0, r1, r2}
 330:main.c        ****     sprintf(buf, "%s %02d-%02d-%04d\r\n", dayRef[date.day-1], date.date, date.month, date.year);
 476              		.loc 1 330 0
 477 001c 9DF80820 		ldrb	r2, [sp, #8]	@ zero_extendqisi2
 478 0020 013A     		subs	r2, r2, #1
 479 0022 9DF80930 		ldrb	r3, [sp, #9]	@ zero_extendqisi2
 480 0026 9DF80A10 		ldrb	r1, [sp, #10]	@ zero_extendqisi2
 481 002a BDF80C00 		ldrh	r0, [sp, #12]
 482 002e 0CAC     		add	r4, sp, #48
 483 0030 04EB8202 		add	r2, r4, r2, lsl #2
 484 0034 52F81C2C 		ldr	r2, [r2, #-28]
 485 0038 0190     		str	r0, [sp, #4]
 486 003a 0091     		str	r1, [sp]
 487 003c 0349     		ldr	r1, .L45+4
 488 003e 3046     		mov	r0, r6
 489 0040 FFF7FEFF 		bl	sprintf
 490              	.LVL34:
 331:main.c        **** }
 491              		.loc 1 331 0
 492 0044 0CB0     		add	sp, sp, #48
 493              		.cfi_def_cfa_offset 16
 494              		@ sp needed
 495 0046 70BD     		pop	{r4, r5, r6, pc}
 496              	.LVL35:
 497              	.L46:
 498              		.align	2
 499              	.L45:
 500 0048 00000000 		.word	.LANCHOR1
 501 004c 2C000000 		.word	.LC12
 502              		.cfi_endproc
ARM GAS  C:\Users\laure\AppData\Local\Temp\ccHaU8kd.s 			page 16


 503              	.LFE75:
 504              		.size	DateToString, .-DateToString
 505              		.global	__aeabi_ui2d
 506              		.global	__aeabi_dsub
 507              		.global	__aeabi_ddiv
 508              		.global	__aeabi_dmul
 509              		.global	__aeabi_d2uiz
 510              		.section	.text.GetMillis,"ax",%progbits
 511              		.align	2
 512              		.global	GetMillis
 513              		.thumb
 514              		.thumb_func
 515              		.type	GetMillis, %function
 516              	GetMillis:
 517              	.LFB76:
 332:main.c        **** 
 333:main.c        **** uint16_t GetMillis(){
 518              		.loc 1 333 0
 519              		.cfi_startproc
 520              		@ args = 0, pretend = 0, frame = 0
 521              		@ frame_needed = 0, uses_anonymous_args = 0
 522 0000 38B5     		push	{r3, r4, r5, lr}
 523              		.cfi_def_cfa_offset 16
 524              		.cfi_offset 3, -16
 525              		.cfi_offset 4, -12
 526              		.cfi_offset 5, -8
 527              		.cfi_offset 14, -4
 334:main.c        ****     double millis_period = MILLIS_COUNTER_ReadPeriod();
 528              		.loc 1 334 0
 529 0002 FFF7FEFF 		bl	MILLIS_COUNTER_ReadPeriod
 530              	.LVL36:
 531 0006 FFF7FEFF 		bl	__aeabi_ui2d
 532              	.LVL37:
 533 000a 0446     		mov	r4, r0
 534 000c 0D46     		mov	r5, r1
 535              	.LVL38:
 335:main.c        ****     double ms_cur = millis_period - MILLIS_COUNTER_ReadCounter(); // because of down counter
 536              		.loc 1 335 0
 537 000e FFF7FEFF 		bl	MILLIS_COUNTER_ReadCounter
 538              	.LVL39:
 539 0012 FFF7FEFF 		bl	__aeabi_ui2d
 540              	.LVL40:
 541 0016 0246     		mov	r2, r0
 542 0018 0B46     		mov	r3, r1
 543 001a 2046     		mov	r0, r4
 544 001c 2946     		mov	r1, r5
 545 001e FFF7FEFF 		bl	__aeabi_dsub
 546              	.LVL41:
 336:main.c        ****     uint16_t millis = 1000*(ms_cur/millis_period);
 547              		.loc 1 336 0
 548 0022 2246     		mov	r2, r4
 549 0024 2B46     		mov	r3, r5
 550 0026 FFF7FEFF 		bl	__aeabi_ddiv
 551              	.LVL42:
 552 002a 0022     		movs	r2, #0
 553 002c 034B     		ldr	r3, .L49
 554 002e FFF7FEFF 		bl	__aeabi_dmul
ARM GAS  C:\Users\laure\AppData\Local\Temp\ccHaU8kd.s 			page 17


 555              	.LVL43:
 556 0032 FFF7FEFF 		bl	__aeabi_d2uiz
 557              	.LVL44:
 337:main.c        ****     return millis;
 338:main.c        **** }
 558              		.loc 1 338 0
 559 0036 80B2     		uxth	r0, r0
 560 0038 38BD     		pop	{r3, r4, r5, pc}
 561              	.LVL45:
 562              	.L50:
 563 003a 00BF     		.align	2
 564              	.L49:
 565 003c 00408F40 		.word	1083129856
 566              		.cfi_endproc
 567              	.LFE76:
 568              		.size	GetMillis, .-GetMillis
 569              		.global	__aeabi_ui2f
 570              		.global	__aeabi_fdiv
 571              		.global	__aeabi_fsub
 572              		.global	__aeabi_f2d
 573              		.section	.text.SetMillis,"ax",%progbits
 574              		.align	2
 575              		.global	SetMillis
 576              		.thumb
 577              		.thumb_func
 578              		.type	SetMillis, %function
 579              	SetMillis:
 580              	.LFB77:
 339:main.c        **** 
 340:main.c        **** // TODO TEST
 341:main.c        **** void SetMillis(uint16_t millis){
 581              		.loc 1 341 0
 582              		.cfi_startproc
 583              		@ args = 0, pretend = 0, frame = 0
 584              		@ frame_needed = 0, uses_anonymous_args = 0
 585              	.LVL46:
 586 0000 70B5     		push	{r4, r5, r6, lr}
 587              		.cfi_def_cfa_offset 16
 588              		.cfi_offset 4, -16
 589              		.cfi_offset 5, -12
 590              		.cfi_offset 6, -8
 591              		.cfi_offset 14, -4
 592 0002 0646     		mov	r6, r0
 342:main.c        ****     // - Disable ms counter and calibration interrupt
 343:main.c        ****     MILLIS_COUNTER_Stop();
 593              		.loc 1 343 0
 594 0004 FFF7FEFF 		bl	MILLIS_COUNTER_Stop
 595              	.LVL47:
 344:main.c        ****     CTR_SYNC_EN_Write(0x0);
 596              		.loc 1 344 0
 597 0008 0020     		movs	r0, #0
 598 000a FFF7FEFF 		bl	CTR_SYNC_EN_Write
 599              	.LVL48:
 345:main.c        ****     MILLIS_COUNTER_CAPT_INT_Disable();
 600              		.loc 1 345 0
 601 000e FFF7FEFF 		bl	MILLIS_COUNTER_CAPT_INT_Disable
 602              	.LVL49:
ARM GAS  C:\Users\laure\AppData\Local\Temp\ccHaU8kd.s 			page 18


 346:main.c        ****     
 347:main.c        ****     
 348:main.c        ****     // - Calculate and write new current value
 349:main.c        ****     double millis_period = MILLIS_COUNTER_ReadPeriod();
 603              		.loc 1 349 0
 604 0012 FFF7FEFF 		bl	MILLIS_COUNTER_ReadPeriod
 605              	.LVL50:
 606 0016 FFF7FEFF 		bl	__aeabi_ui2d
 607              	.LVL51:
 608 001a 0446     		mov	r4, r0
 609 001c 0D46     		mov	r5, r1
 610              	.LVL52:
 350:main.c        ****     double ms_cur = (1-(float)millis/1000) * millis_period; // 1-ratio because down counter
 611              		.loc 1 350 0
 612 001e 3046     		mov	r0, r6
 613 0020 FFF7FEFF 		bl	__aeabi_ui2f
 614              	.LVL53:
 615 0024 0D49     		ldr	r1, .L53
 616 0026 FFF7FEFF 		bl	__aeabi_fdiv
 617              	.LVL54:
 618 002a 0146     		mov	r1, r0
 619 002c 4FF07E50 		mov	r0, #1065353216
 620 0030 FFF7FEFF 		bl	__aeabi_fsub
 621              	.LVL55:
 622 0034 FFF7FEFF 		bl	__aeabi_f2d
 623              	.LVL56:
 624 0038 0246     		mov	r2, r0
 625 003a 0B46     		mov	r3, r1
 626 003c 2046     		mov	r0, r4
 627 003e 2946     		mov	r1, r5
 628 0040 FFF7FEFF 		bl	__aeabi_dmul
 629              	.LVL57:
 351:main.c        ****     MILLIS_COUNTER_WriteCounter(ms_cur);
 630              		.loc 1 351 0
 631 0044 FFF7FEFF 		bl	__aeabi_d2uiz
 632              	.LVL58:
 633 0048 FFF7FEFF 		bl	MILLIS_COUNTER_WriteCounter
 634              	.LVL59:
 352:main.c        ****     
 353:main.c        ****     // - Re enable
 354:main.c        ****     MILLIS_COUNTER_Enable();
 635              		.loc 1 354 0
 636 004c FFF7FEFF 		bl	MILLIS_COUNTER_Enable
 637              	.LVL60:
 355:main.c        ****     CTR_SYNC_EN_Write(0x1);
 638              		.loc 1 355 0
 639 0050 0120     		movs	r0, #1
 640 0052 FFF7FEFF 		bl	CTR_SYNC_EN_Write
 641              	.LVL61:
 356:main.c        ****     MILLIS_COUNTER_CAPT_INT_Enable();
 642              		.loc 1 356 0
 643 0056 FFF7FEFF 		bl	MILLIS_COUNTER_CAPT_INT_Enable
 644              	.LVL62:
 645 005a 70BD     		pop	{r4, r5, r6, pc}
 646              	.LVL63:
 647              	.L54:
 648              		.align	2
ARM GAS  C:\Users\laure\AppData\Local\Temp\ccHaU8kd.s 			page 19


 649              	.L53:
 650 005c 00007A44 		.word	1148846080
 651              		.cfi_endproc
 652              	.LFE77:
 653              		.size	SetMillis, .-SetMillis
 654              		.section	.text.RTC_Reset,"ax",%progbits
 655              		.align	2
 656              		.global	RTC_Reset
 657              		.thumb
 658              		.thumb_func
 659              		.type	RTC_Reset, %function
 660              	RTC_Reset:
 661              	.LFB79:
 357:main.c        **** }
 358:main.c        **** 
 359:main.c        **** void RTC_Init(){
 360:main.c        ****     // Get hours, check current 12/24h setting
 361:main.c        ****     // Set to 24h
 362:main.c        ****     UBYTE hrs = RTC_ReadAddr(RTC_ADDR_HRS);
 363:main.c        ****     if(hrs & RTC_HOURS_12){ // If AM/PM mode enabled, and it's PM
 364:main.c        ****         hrs = (hrs & 0x0F) + ((hrs>>4) & 0x1)*10;
 365:main.c        ****         hrs += 12;
 366:main.c        ****         RTC_SetHours(hrs);
 367:main.c        ****     }
 368:main.c        ****     
 369:main.c        ****     // DEBUG
 370:main.c        ****     RTC_SetHours(23);
 371:main.c        ****     RTC_SetMinutes(59);
 372:main.c        ****     RTC_SetSeconds(48);
 373:main.c        ****     
 374:main.c        ****     RTC_SetDate(31);
 375:main.c        ****     RTC_SetDay(7);
 376:main.c        ****     RTC_SetMonth(12);
 377:main.c        ****     RTC_SetYear(1999);
 378:main.c        ****     
 379:main.c        ****     // Enable 1Hz signal generation for calibration
 380:main.c        ****     RTC_WriteAddr(0x0E, 0x00); // Control register 0Eh: enable 1Hz square wave
 381:main.c        ****     CyDelay(10);
 382:main.c        **** }
 383:main.c        **** 
 384:main.c        **** void RTC_Reset(){
 662              		.loc 1 384 0
 663              		.cfi_startproc
 664              		@ args = 0, pretend = 0, frame = 0
 665              		@ frame_needed = 0, uses_anonymous_args = 0
 666 0000 10B5     		push	{r4, lr}
 667              		.cfi_def_cfa_offset 8
 668              		.cfi_offset 4, -8
 669              		.cfi_offset 14, -4
 385:main.c        ****     CyPins_ClearPin(RTC_RST);
 670              		.loc 1 385 0
 671 0002 084C     		ldr	r4, .L57
 672 0004 2378     		ldrb	r3, [r4]	@ zero_extendqisi2
 673 0006 03F0FE03 		and	r3, r3, #254
 674 000a 2370     		strb	r3, [r4]
 386:main.c        ****     CyDelay(20);
 675              		.loc 1 386 0
ARM GAS  C:\Users\laure\AppData\Local\Temp\ccHaU8kd.s 			page 20


 676 000c 1420     		movs	r0, #20
 677 000e FFF7FEFF 		bl	CyDelay
 678              	.LVL64:
 387:main.c        ****     CyPins_SetPin(RTC_RST);
 679              		.loc 1 387 0
 680 0012 2378     		ldrb	r3, [r4]	@ zero_extendqisi2
 681 0014 43F00103 		orr	r3, r3, #1
 682 0018 2370     		strb	r3, [r4]
 388:main.c        ****     CyDelay(20);
 683              		.loc 1 388 0
 684 001a 1420     		movs	r0, #20
 685 001c FFF7FEFF 		bl	CyDelay
 686              	.LVL65:
 687 0020 10BD     		pop	{r4, pc}
 688              	.L58:
 689 0022 00BF     		.align	2
 690              	.L57:
 691 0024 1C500040 		.word	1073762332
 692              		.cfi_endproc
 693              	.LFE79:
 694              		.size	RTC_Reset, .-RTC_Reset
 695              		.section	.text.RTC_WriteAddr,"ax",%progbits
 696              		.align	2
 697              		.global	RTC_WriteAddr
 698              		.thumb
 699              		.thumb_func
 700              		.type	RTC_WriteAddr, %function
 701              	RTC_WriteAddr:
 702              	.LFB94:
 389:main.c        **** }
 390:main.c        **** 
 391:main.c        **** uint8_t RTC_GetSeconds(){
 392:main.c        ****     UBYTE t = RTC_ReadAddr(RTC_ADDR_SECS);
 393:main.c        ****     t = (t & 0x0F) + ((t>>4) * 10);
 394:main.c        ****     return t;
 395:main.c        **** }
 396:main.c        **** void RTC_SetSeconds(uint8_t t){
 397:main.c        ****     uint8_t ones = t % 10/*0-9*/;
 398:main.c        ****     uint8_t tens = ((t % 100) - ones)/10/*tens*/;
 399:main.c        ****     t =  ones + ((tens&0x07)<<4);
 400:main.c        ****     #ifdef DEBUG_RTC
 401:main.c        ****         UART_print("Secs", t, 2);
 402:main.c        ****     #endif
 403:main.c        ****     RTC_WriteAddr(RTC_ADDR_SECS, t);
 404:main.c        **** }
 405:main.c        **** uint8_t RTC_GetMinutes(){
 406:main.c        ****     UBYTE t = RTC_ReadAddr(RTC_ADDR_MINS);
 407:main.c        ****     t = (t & 0x0F) + ((t>>4) * 10);
 408:main.c        ****     return t;
 409:main.c        **** }
 410:main.c        **** void RTC_SetMinutes(uint8_t t){
 411:main.c        ****     uint8_t ones = t % 10/*0-9*/;
 412:main.c        ****     uint8_t tens = ((t % 100) - ones)/10/*tens*/;
 413:main.c        ****     t =  ones + ((tens&0x07)<<4);
 414:main.c        ****     #ifdef DEBUG_RTC
 415:main.c        ****         UART_print("Mins", t, 2);
 416:main.c        ****     #endif
ARM GAS  C:\Users\laure\AppData\Local\Temp\ccHaU8kd.s 			page 21


 417:main.c        ****     RTC_WriteAddr(RTC_ADDR_MINS, t);
 418:main.c        **** }
 419:main.c        **** 
 420:main.c        **** uint8_t RTC_GetHours(){
 421:main.c        ****     UBYTE t = RTC_ReadAddr(RTC_ADDR_HRS);
 422:main.c        ****     t = (t & 0x0F) + ((t>>4) & 0x3)*10;;
 423:main.c        ****     return t;
 424:main.c        **** }
 425:main.c        **** void RTC_SetHours(uint8_t hrs){
 426:main.c        ****     uint8_t ones = hrs % 10/*0-9*/;
 427:main.c        ****     uint8_t tens = ((hrs % 100) - ones)/10/*tens*/;
 428:main.c        ****     hrs =  ones + ((tens&0x03)<<4);
 429:main.c        ****     hrs = hrs & ~(1<<RTC_HOURS_12_24_shift);//Setting to 24h format
 430:main.c        ****     #ifdef DEBUG_RTC
 431:main.c        ****         UART_print("Hrs", hrs, 2);
 432:main.c        ****     #endif
 433:main.c        ****     RTC_WriteAddr(RTC_ADDR_HRS, hrs);
 434:main.c        **** }
 435:main.c        **** 
 436:main.c        **** uint8_t RTC_GetDay(){
 437:main.c        ****     UBYTE t = RTC_ReadAddr(RTC_ADDR_DAY);
 438:main.c        ****     t = (t & 0x07);
 439:main.c        ****     return t;
 440:main.c        **** }
 441:main.c        **** void RTC_SetDay(uint8_t day){
 442:main.c        ****     RTC_WriteAddr(RTC_ADDR_DAY, day & 0x07);
 443:main.c        **** }
 444:main.c        **** 
 445:main.c        **** uint8_t RTC_GetDate(){
 446:main.c        ****     UBYTE t = RTC_ReadAddr(RTC_ADDR_DATE) & 0x3F;
 447:main.c        ****     t = (t & 0x0F) + ((t>>4) * 10);
 448:main.c        ****     return t;
 449:main.c        **** }
 450:main.c        **** void RTC_SetDate(uint8_t t){
 451:main.c        ****     uint8_t ones = t % 10/*0-9*/;
 452:main.c        ****     uint8_t tens = ((t % 100) - ones)/10/*tens*/;
 453:main.c        ****     t =  ones + ((tens&0x03)<<4);
 454:main.c        ****     #ifdef DEBUG_RTC
 455:main.c        ****         UART_print("Date", t, 2);
 456:main.c        ****     #endif
 457:main.c        ****     RTC_WriteAddr(RTC_ADDR_DATE, t);
 458:main.c        **** }
 459:main.c        **** 
 460:main.c        **** uint8_t RTC_GetMonth(){
 461:main.c        ****     uint8_t t = RTC_ReadAddr(RTC_ADDR_MON);
 462:main.c        ****     if(t & 1<<7){
 463:main.c        ****         // update century in SRAM and reset century bit 
 464:main.c        ****         uint8_t milcentury = RTC_ReadAddr(RTC_SRAM_MILLENIUM_CENTURY);
 465:main.c        ****         milcentury += 1;
 466:main.c        ****         RTC_WriteAddr(RTC_SRAM_MILLENIUM_CENTURY, milcentury & 0xFF);
 467:main.c        ****         RTC_WriteAddr(RTC_ADDR_MON, t & ~(1<<7));
 468:main.c        ****     }
 469:main.c        ****     t = t & 0x1F;
 470:main.c        ****     t = (t & 0x0F) + ((t>>4) * 10);
 471:main.c        ****     return t;
 472:main.c        **** }
 473:main.c        **** void RTC_SetMonth(uint8_t t){
ARM GAS  C:\Users\laure\AppData\Local\Temp\ccHaU8kd.s 			page 22


 474:main.c        ****     uint8_t centuryBit = RTC_ReadAddr(RTC_ADDR_MON) & 1<<7;
 475:main.c        ****     if(centuryBit){
 476:main.c        ****         // update century in SRAM and reset century bit 
 477:main.c        ****         uint8_t milcentury = RTC_ReadAddr(RTC_SRAM_MILLENIUM_CENTURY);
 478:main.c        ****         milcentury += 1;
 479:main.c        ****         RTC_WriteAddr(RTC_SRAM_MILLENIUM_CENTURY, milcentury & 0xFF);
 480:main.c        ****     }
 481:main.c        ****     uint8_t ones = t % 10/*0-9*/;
 482:main.c        ****     uint8_t tens = ((t % 100) - ones)/10/*tens*/;
 483:main.c        ****     t =  ones + ((tens&0x01)<<4);
 484:main.c        ****     #ifdef DEBUG_RTC
 485:main.c        ****         UART_print("Month", t, 2);
 486:main.c        ****     #endif
 487:main.c        ****     RTC_WriteAddr(RTC_ADDR_MON, t);
 488:main.c        ****     
 489:main.c        **** }
 490:main.c        **** 
 491:main.c        **** uint16_t RTC_GetYear(){
 492:main.c        ****     uint8_t mon = RTC_ReadAddr(RTC_ADDR_MON);
 493:main.c        ****     uint8_t milcentury = RTC_ReadAddr(RTC_SRAM_MILLENIUM_CENTURY);
 494:main.c        ****     if(mon & 1<<7){
 495:main.c        ****         // update century in SRAM and clear century bit   
 496:main.c        ****         milcentury += 1;
 497:main.c        ****         RTC_WriteAddr(RTC_SRAM_MILLENIUM_CENTURY, milcentury & 0xFF);
 498:main.c        ****         RTC_WriteAddr(RTC_ADDR_MON, mon & ~(1<<7));
 499:main.c        ****     }
 500:main.c        ****     uint8_t year = RTC_ReadAddr(RTC_ADDR_YR);
 501:main.c        ****     year = (year & 0x0F) + ((year>>4) * 10);
 502:main.c        ****     return (year + milcentury*100);
 503:main.c        **** }
 504:main.c        **** 
 505:main.c        **** void RTC_SetYear(uint16_t t){
 506:main.c        ****     uint8_t ones = t % 10/*0-9*/;
 507:main.c        ****     uint8_t tens = ((t % 100) - ones);
 508:main.c        ****     uint8_t century = (t - ones -tens)/100;
 509:main.c        ****     tens = tens/10;
 510:main.c        ****     
 511:main.c        ****     #ifdef DEBUG_RTC
 512:main.c        ****         UART_print("Century", century & 0xFF, 2);
 513:main.c        ****     #endif
 514:main.c        ****     
 515:main.c        ****     
 516:main.c        ****     t =  ones + ((tens&0x0F)<<4);
 517:main.c        ****     #ifdef DEBUG_RTC
 518:main.c        ****         UART_print("Year", t, 2);
 519:main.c        ****     #endif
 520:main.c        **** 
 521:main.c        ****     RTC_WriteAddr(RTC_ADDR_YR, t);
 522:main.c        ****     
 523:main.c        ****     // Reset century and update current century in SRAM
 524:main.c        ****     uint8_t mon = RTC_ReadAddr(RTC_ADDR_MON);
 525:main.c        ****     RTC_WriteAddr(RTC_ADDR_MON, mon & ~(1<<7));
 526:main.c        ****     RTC_WriteAddr(RTC_SRAM_MILLENIUM_CENTURY, century & 0xFF);
 527:main.c        **** }
 528:main.c        **** 
 529:main.c        **** void RTC_WriteAddr(UBYTE address, UBYTE value){
 703              		.loc 1 529 0
ARM GAS  C:\Users\laure\AppData\Local\Temp\ccHaU8kd.s 			page 23


 704              		.cfi_startproc
 705              		@ args = 0, pretend = 0, frame = 8
 706              		@ frame_needed = 0, uses_anonymous_args = 0
 707              	.LVL66:
 708 0000 00B5     		push	{lr}
 709              		.cfi_def_cfa_offset 4
 710              		.cfi_offset 14, -4
 711 0002 83B0     		sub	sp, sp, #12
 712              		.cfi_def_cfa_offset 16
 530:main.c        ****     UBYTE i2c_buf[2] = {address, value};
 713              		.loc 1 530 0
 714 0004 8DF80400 		strb	r0, [sp, #4]
 715 0008 8DF80510 		strb	r1, [sp, #5]
 531:main.c        ****     
 532:main.c        ****     I2C_MasterWriteBuf(RTC_ADDRESS, i2c_buf, 2, I2C_MODE_COMPLETE_XFER);
 716              		.loc 1 532 0
 717 000c 0023     		movs	r3, #0
 718 000e 0222     		movs	r2, #2
 719 0010 01A9     		add	r1, sp, #4
 720              	.LVL67:
 721 0012 6820     		movs	r0, #104
 722              	.LVL68:
 723 0014 FFF7FEFF 		bl	I2C_MasterWriteBuf
 724              	.LVL69:
 725              	.L60:
 533:main.c        ****     while( !(I2C_MasterStatus() & I2C_MSTAT_WR_CMPLT)); // Block until complete TODO make something
 726              		.loc 1 533 0 discriminator 1
 727 0018 FFF7FEFF 		bl	I2C_MasterStatus
 728              	.LVL70:
 729 001c 10F0020F 		tst	r0, #2
 730 0020 FAD0     		beq	.L60
 534:main.c        **** }
 731              		.loc 1 534 0
 732 0022 03B0     		add	sp, sp, #12
 733              		.cfi_def_cfa_offset 4
 734              		@ sp needed
 735 0024 5DF804FB 		ldr	pc, [sp], #4
 736              		.cfi_endproc
 737              	.LFE94:
 738              		.size	RTC_WriteAddr, .-RTC_WriteAddr
 739              		.section	.text.RTC_SetSeconds,"ax",%progbits
 740              		.align	2
 741              		.global	RTC_SetSeconds
 742              		.thumb
 743              		.thumb_func
 744              		.type	RTC_SetSeconds, %function
 745              	RTC_SetSeconds:
 746              	.LFB81:
 396:main.c        ****     uint8_t ones = t % 10/*0-9*/;
 747              		.loc 1 396 0
 748              		.cfi_startproc
 749              		@ args = 0, pretend = 0, frame = 0
 750              		@ frame_needed = 0, uses_anonymous_args = 0
 751              	.LVL71:
 752 0000 08B5     		push	{r3, lr}
 753              		.cfi_def_cfa_offset 8
 754              		.cfi_offset 3, -8
ARM GAS  C:\Users\laure\AppData\Local\Temp\ccHaU8kd.s 			page 24


 755              		.cfi_offset 14, -4
 397:main.c        ****     uint8_t tens = ((t % 100) - ones)/10/*tens*/;
 756              		.loc 1 397 0
 757 0002 104B     		ldr	r3, .L64
 758 0004 A3FB0023 		umull	r2, r3, r3, r0
 759 0008 DB08     		lsrs	r3, r3, #3
 760 000a 03EB8303 		add	r3, r3, r3, lsl #2
 761 000e 5900     		lsls	r1, r3, #1
 762 0010 411A     		subs	r1, r0, r1
 763 0012 C9B2     		uxtb	r1, r1
 764              	.LVL72:
 398:main.c        ****     t =  ones + ((tens&0x07)<<4);
 765              		.loc 1 398 0
 766 0014 0C4B     		ldr	r3, .L64+4
 767 0016 A3FB0023 		umull	r2, r3, r3, r0
 768 001a 5B09     		lsrs	r3, r3, #5
 769 001c 6422     		movs	r2, #100
 770 001e 02FB1300 		mls	r0, r2, r3, r0
 771              	.LVL73:
 772 0022 C0B2     		uxtb	r0, r0
 773 0024 401A     		subs	r0, r0, r1
 774 0026 094B     		ldr	r3, .L64+8
 775 0028 83FB0023 		smull	r2, r3, r3, r0
 776 002c C017     		asrs	r0, r0, #31
 777 002e C0EBA300 		rsb	r0, r0, r3, asr #2
 778              	.LVL74:
 399:main.c        ****     #ifdef DEBUG_RTC
 779              		.loc 1 399 0
 780 0032 0001     		lsls	r0, r0, #4
 781              	.LVL75:
 782 0034 00F07000 		and	r0, r0, #112
 783 0038 0144     		add	r1, r1, r0
 784              	.LVL76:
 403:main.c        **** }
 785              		.loc 1 403 0
 786 003a C9B2     		uxtb	r1, r1
 787 003c 0020     		movs	r0, #0
 788 003e FFF7FEFF 		bl	RTC_WriteAddr
 789              	.LVL77:
 790 0042 08BD     		pop	{r3, pc}
 791              	.L65:
 792              		.align	2
 793              	.L64:
 794 0044 CDCCCCCC 		.word	-858993459
 795 0048 1F85EB51 		.word	1374389535
 796 004c 67666666 		.word	1717986919
 797              		.cfi_endproc
 798              	.LFE81:
 799              		.size	RTC_SetSeconds, .-RTC_SetSeconds
 800              		.section	.text.RTC_SetMinutes,"ax",%progbits
 801              		.align	2
 802              		.global	RTC_SetMinutes
 803              		.thumb
 804              		.thumb_func
 805              		.type	RTC_SetMinutes, %function
 806              	RTC_SetMinutes:
 807              	.LFB83:
ARM GAS  C:\Users\laure\AppData\Local\Temp\ccHaU8kd.s 			page 25


 410:main.c        ****     uint8_t ones = t % 10/*0-9*/;
 808              		.loc 1 410 0
 809              		.cfi_startproc
 810              		@ args = 0, pretend = 0, frame = 0
 811              		@ frame_needed = 0, uses_anonymous_args = 0
 812              	.LVL78:
 813 0000 08B5     		push	{r3, lr}
 814              		.cfi_def_cfa_offset 8
 815              		.cfi_offset 3, -8
 816              		.cfi_offset 14, -4
 411:main.c        ****     uint8_t tens = ((t % 100) - ones)/10/*tens*/;
 817              		.loc 1 411 0
 818 0002 104B     		ldr	r3, .L68
 819 0004 A3FB0023 		umull	r2, r3, r3, r0
 820 0008 DB08     		lsrs	r3, r3, #3
 821 000a 03EB8303 		add	r3, r3, r3, lsl #2
 822 000e 5900     		lsls	r1, r3, #1
 823 0010 411A     		subs	r1, r0, r1
 824 0012 C9B2     		uxtb	r1, r1
 825              	.LVL79:
 412:main.c        ****     t =  ones + ((tens&0x07)<<4);
 826              		.loc 1 412 0
 827 0014 0C4B     		ldr	r3, .L68+4
 828 0016 A3FB0023 		umull	r2, r3, r3, r0
 829 001a 5B09     		lsrs	r3, r3, #5
 830 001c 6422     		movs	r2, #100
 831 001e 02FB1300 		mls	r0, r2, r3, r0
 832              	.LVL80:
 833 0022 C0B2     		uxtb	r0, r0
 834 0024 401A     		subs	r0, r0, r1
 835 0026 094B     		ldr	r3, .L68+8
 836 0028 83FB0023 		smull	r2, r3, r3, r0
 837 002c C017     		asrs	r0, r0, #31
 838 002e C0EBA300 		rsb	r0, r0, r3, asr #2
 839              	.LVL81:
 413:main.c        ****     #ifdef DEBUG_RTC
 840              		.loc 1 413 0
 841 0032 0001     		lsls	r0, r0, #4
 842              	.LVL82:
 843 0034 00F07000 		and	r0, r0, #112
 844 0038 0144     		add	r1, r1, r0
 845              	.LVL83:
 417:main.c        **** }
 846              		.loc 1 417 0
 847 003a C9B2     		uxtb	r1, r1
 848 003c 0120     		movs	r0, #1
 849 003e FFF7FEFF 		bl	RTC_WriteAddr
 850              	.LVL84:
 851 0042 08BD     		pop	{r3, pc}
 852              	.L69:
 853              		.align	2
 854              	.L68:
 855 0044 CDCCCCCC 		.word	-858993459
 856 0048 1F85EB51 		.word	1374389535
 857 004c 67666666 		.word	1717986919
 858              		.cfi_endproc
 859              	.LFE83:
ARM GAS  C:\Users\laure\AppData\Local\Temp\ccHaU8kd.s 			page 26


 860              		.size	RTC_SetMinutes, .-RTC_SetMinutes
 861              		.section	.text.RTC_SetHours,"ax",%progbits
 862              		.align	2
 863              		.global	RTC_SetHours
 864              		.thumb
 865              		.thumb_func
 866              		.type	RTC_SetHours, %function
 867              	RTC_SetHours:
 868              	.LFB85:
 425:main.c        ****     uint8_t ones = hrs % 10/*0-9*/;
 869              		.loc 1 425 0
 870              		.cfi_startproc
 871              		@ args = 0, pretend = 0, frame = 0
 872              		@ frame_needed = 0, uses_anonymous_args = 0
 873              	.LVL85:
 874 0000 08B5     		push	{r3, lr}
 875              		.cfi_def_cfa_offset 8
 876              		.cfi_offset 3, -8
 877              		.cfi_offset 14, -4
 426:main.c        ****     uint8_t tens = ((hrs % 100) - ones)/10/*tens*/;
 878              		.loc 1 426 0
 879 0002 114B     		ldr	r3, .L72
 880 0004 A3FB0023 		umull	r2, r3, r3, r0
 881 0008 DB08     		lsrs	r3, r3, #3
 882 000a 03EB8303 		add	r3, r3, r3, lsl #2
 883 000e 5900     		lsls	r1, r3, #1
 884 0010 411A     		subs	r1, r0, r1
 885 0012 C9B2     		uxtb	r1, r1
 886              	.LVL86:
 427:main.c        ****     hrs =  ones + ((tens&0x03)<<4);
 887              		.loc 1 427 0
 888 0014 0D4B     		ldr	r3, .L72+4
 889 0016 A3FB0023 		umull	r2, r3, r3, r0
 890 001a 5B09     		lsrs	r3, r3, #5
 891 001c 6422     		movs	r2, #100
 892 001e 02FB1300 		mls	r0, r2, r3, r0
 893              	.LVL87:
 894 0022 C0B2     		uxtb	r0, r0
 895 0024 401A     		subs	r0, r0, r1
 896 0026 0A4B     		ldr	r3, .L72+8
 897 0028 83FB0023 		smull	r2, r3, r3, r0
 898 002c C017     		asrs	r0, r0, #31
 899 002e C0EBA300 		rsb	r0, r0, r3, asr #2
 900              	.LVL88:
 428:main.c        ****     hrs = hrs & ~(1<<RTC_HOURS_12_24_shift);//Setting to 24h format
 901              		.loc 1 428 0
 902 0032 0001     		lsls	r0, r0, #4
 903              	.LVL89:
 904 0034 00F03000 		and	r0, r0, #48
 905 0038 0144     		add	r1, r1, r0
 906              	.LVL90:
 433:main.c        **** }
 907              		.loc 1 433 0
 908 003a 01F0BF01 		and	r1, r1, #191
 909              	.LVL91:
 910 003e 0220     		movs	r0, #2
 911 0040 FFF7FEFF 		bl	RTC_WriteAddr
ARM GAS  C:\Users\laure\AppData\Local\Temp\ccHaU8kd.s 			page 27


 912              	.LVL92:
 913 0044 08BD     		pop	{r3, pc}
 914              	.L73:
 915 0046 00BF     		.align	2
 916              	.L72:
 917 0048 CDCCCCCC 		.word	-858993459
 918 004c 1F85EB51 		.word	1374389535
 919 0050 67666666 		.word	1717986919
 920              		.cfi_endproc
 921              	.LFE85:
 922              		.size	RTC_SetHours, .-RTC_SetHours
 923              		.section	.text.RTC_SetDay,"ax",%progbits
 924              		.align	2
 925              		.global	RTC_SetDay
 926              		.thumb
 927              		.thumb_func
 928              		.type	RTC_SetDay, %function
 929              	RTC_SetDay:
 930              	.LFB87:
 441:main.c        ****     RTC_WriteAddr(RTC_ADDR_DAY, day & 0x07);
 931              		.loc 1 441 0
 932              		.cfi_startproc
 933              		@ args = 0, pretend = 0, frame = 0
 934              		@ frame_needed = 0, uses_anonymous_args = 0
 935              	.LVL93:
 936 0000 08B5     		push	{r3, lr}
 937              		.cfi_def_cfa_offset 8
 938              		.cfi_offset 3, -8
 939              		.cfi_offset 14, -4
 442:main.c        **** }
 940              		.loc 1 442 0
 941 0002 00F00701 		and	r1, r0, #7
 942 0006 0320     		movs	r0, #3
 943              	.LVL94:
 944 0008 FFF7FEFF 		bl	RTC_WriteAddr
 945              	.LVL95:
 946 000c 08BD     		pop	{r3, pc}
 947              		.cfi_endproc
 948              	.LFE87:
 949              		.size	RTC_SetDay, .-RTC_SetDay
 950 000e 00BF     		.section	.text.RTC_SetDate,"ax",%progbits
 951              		.align	2
 952              		.global	RTC_SetDate
 953              		.thumb
 954              		.thumb_func
 955              		.type	RTC_SetDate, %function
 956              	RTC_SetDate:
 957              	.LFB89:
 450:main.c        ****     uint8_t ones = t % 10/*0-9*/;
 958              		.loc 1 450 0
 959              		.cfi_startproc
 960              		@ args = 0, pretend = 0, frame = 0
 961              		@ frame_needed = 0, uses_anonymous_args = 0
 962              	.LVL96:
 963 0000 08B5     		push	{r3, lr}
 964              		.cfi_def_cfa_offset 8
 965              		.cfi_offset 3, -8
ARM GAS  C:\Users\laure\AppData\Local\Temp\ccHaU8kd.s 			page 28


 966              		.cfi_offset 14, -4
 451:main.c        ****     uint8_t tens = ((t % 100) - ones)/10/*tens*/;
 967              		.loc 1 451 0
 968 0002 104B     		ldr	r3, .L78
 969 0004 A3FB0023 		umull	r2, r3, r3, r0
 970 0008 DB08     		lsrs	r3, r3, #3
 971 000a 03EB8303 		add	r3, r3, r3, lsl #2
 972 000e 5900     		lsls	r1, r3, #1
 973 0010 411A     		subs	r1, r0, r1
 974 0012 C9B2     		uxtb	r1, r1
 975              	.LVL97:
 452:main.c        ****     t =  ones + ((tens&0x03)<<4);
 976              		.loc 1 452 0
 977 0014 0C4B     		ldr	r3, .L78+4
 978 0016 A3FB0023 		umull	r2, r3, r3, r0
 979 001a 5B09     		lsrs	r3, r3, #5
 980 001c 6422     		movs	r2, #100
 981 001e 02FB1300 		mls	r0, r2, r3, r0
 982              	.LVL98:
 983 0022 C0B2     		uxtb	r0, r0
 984 0024 401A     		subs	r0, r0, r1
 985 0026 094B     		ldr	r3, .L78+8
 986 0028 83FB0023 		smull	r2, r3, r3, r0
 987 002c C017     		asrs	r0, r0, #31
 988 002e C0EBA300 		rsb	r0, r0, r3, asr #2
 989              	.LVL99:
 453:main.c        ****     #ifdef DEBUG_RTC
 990              		.loc 1 453 0
 991 0032 0001     		lsls	r0, r0, #4
 992              	.LVL100:
 993 0034 00F03000 		and	r0, r0, #48
 994 0038 0144     		add	r1, r1, r0
 995              	.LVL101:
 457:main.c        **** }
 996              		.loc 1 457 0
 997 003a C9B2     		uxtb	r1, r1
 998 003c 0420     		movs	r0, #4
 999 003e FFF7FEFF 		bl	RTC_WriteAddr
 1000              	.LVL102:
 1001 0042 08BD     		pop	{r3, pc}
 1002              	.L79:
 1003              		.align	2
 1004              	.L78:
 1005 0044 CDCCCCCC 		.word	-858993459
 1006 0048 1F85EB51 		.word	1374389535
 1007 004c 67666666 		.word	1717986919
 1008              		.cfi_endproc
 1009              	.LFE89:
 1010              		.size	RTC_SetDate, .-RTC_SetDate
 1011              		.section	.text.RTC_ReadAddr,"ax",%progbits
 1012              		.align	2
 1013              		.global	RTC_ReadAddr
 1014              		.thumb
 1015              		.thumb_func
 1016              		.type	RTC_ReadAddr, %function
 1017              	RTC_ReadAddr:
 1018              	.LFB95:
ARM GAS  C:\Users\laure\AppData\Local\Temp\ccHaU8kd.s 			page 29


 535:main.c        **** 
 536:main.c        **** UBYTE RTC_ReadAddr(UBYTE address){
 1019              		.loc 1 536 0
 1020              		.cfi_startproc
 1021              		@ args = 0, pretend = 0, frame = 8
 1022              		@ frame_needed = 0, uses_anonymous_args = 0
 1023              	.LVL103:
 1024 0000 00B5     		push	{lr}
 1025              		.cfi_def_cfa_offset 4
 1026              		.cfi_offset 14, -4
 1027 0002 83B0     		sub	sp, sp, #12
 1028              		.cfi_def_cfa_offset 16
 537:main.c        ****     UBYTE i2c_buf = address;
 1029              		.loc 1 537 0
 1030 0004 02A9     		add	r1, sp, #8
 1031 0006 01F8010D 		strb	r0, [r1, #-1]!
 538:main.c        ****     
 539:main.c        ****     I2C_MasterWriteBuf(RTC_ADDRESS, &i2c_buf, 1, I2C_MODE_COMPLETE_XFER);
 1032              		.loc 1 539 0
 1033 000a 0023     		movs	r3, #0
 1034 000c 0122     		movs	r2, #1
 1035 000e 6820     		movs	r0, #104
 1036              	.LVL104:
 1037 0010 FFF7FEFF 		bl	I2C_MasterWriteBuf
 1038              	.LVL105:
 1039              	.L81:
 540:main.c        ****     while( !(I2C_MasterStatus() & I2C_MSTAT_WR_CMPLT));// Block until complete TODO make something 
 1040              		.loc 1 540 0 discriminator 1
 1041 0014 FFF7FEFF 		bl	I2C_MasterStatus
 1042              	.LVL106:
 1043 0018 10F0020F 		tst	r0, #2
 1044 001c FAD0     		beq	.L81
 541:main.c        ****     I2C_MasterReadBuf(RTC_ADDRESS, &i2c_buf, 1, I2C_MODE_COMPLETE_XFER);
 1045              		.loc 1 541 0
 1046 001e 0023     		movs	r3, #0
 1047 0020 0122     		movs	r2, #1
 1048 0022 0DF10701 		add	r1, sp, #7
 1049 0026 6820     		movs	r0, #104
 1050 0028 FFF7FEFF 		bl	I2C_MasterReadBuf
 1051              	.LVL107:
 1052              	.L82:
 542:main.c        ****     while( !(I2C_MasterStatus() & I2C_MSTAT_RD_CMPLT));// Block until complete TODO make something 
 1053              		.loc 1 542 0 discriminator 1
 1054 002c FFF7FEFF 		bl	I2C_MasterStatus
 1055              	.LVL108:
 1056 0030 10F0010F 		tst	r0, #1
 1057 0034 FAD0     		beq	.L82
 543:main.c        ****     
 544:main.c        ****     return i2c_buf;
 545:main.c        **** }
 1058              		.loc 1 545 0
 1059 0036 9DF80700 		ldrb	r0, [sp, #7]	@ zero_extendqisi2
 1060 003a 03B0     		add	sp, sp, #12
 1061              		.cfi_def_cfa_offset 4
 1062              		@ sp needed
 1063 003c 5DF804FB 		ldr	pc, [sp], #4
 1064              		.cfi_endproc
ARM GAS  C:\Users\laure\AppData\Local\Temp\ccHaU8kd.s 			page 30


 1065              	.LFE95:
 1066              		.size	RTC_ReadAddr, .-RTC_ReadAddr
 1067              		.section	.text.RTC_GetSeconds,"ax",%progbits
 1068              		.align	2
 1069              		.global	RTC_GetSeconds
 1070              		.thumb
 1071              		.thumb_func
 1072              		.type	RTC_GetSeconds, %function
 1073              	RTC_GetSeconds:
 1074              	.LFB80:
 391:main.c        ****     UBYTE t = RTC_ReadAddr(RTC_ADDR_SECS);
 1075              		.loc 1 391 0
 1076              		.cfi_startproc
 1077              		@ args = 0, pretend = 0, frame = 0
 1078              		@ frame_needed = 0, uses_anonymous_args = 0
 1079 0000 08B5     		push	{r3, lr}
 1080              		.cfi_def_cfa_offset 8
 1081              		.cfi_offset 3, -8
 1082              		.cfi_offset 14, -4
 392:main.c        ****     t = (t & 0x0F) + ((t>>4) * 10);
 1083              		.loc 1 392 0
 1084 0002 0020     		movs	r0, #0
 1085 0004 FFF7FEFF 		bl	RTC_ReadAddr
 1086              	.LVL109:
 393:main.c        ****     return t;
 1087              		.loc 1 393 0
 1088 0008 00F00F01 		and	r1, r0, #15
 1089 000c 0309     		lsrs	r3, r0, #4
 1090 000e 03EB8303 		add	r3, r3, r3, lsl #2
 1091 0012 5A00     		lsls	r2, r3, #1
 1092 0014 D2B2     		uxtb	r2, r2
 1093 0016 8818     		adds	r0, r1, r2
 1094              	.LVL110:
 395:main.c        **** void RTC_SetSeconds(uint8_t t){
 1095              		.loc 1 395 0
 1096 0018 C0B2     		uxtb	r0, r0
 1097 001a 08BD     		pop	{r3, pc}
 1098              		.cfi_endproc
 1099              	.LFE80:
 1100              		.size	RTC_GetSeconds, .-RTC_GetSeconds
 1101              		.section	.text.RTC_GetMinutes,"ax",%progbits
 1102              		.align	2
 1103              		.global	RTC_GetMinutes
 1104              		.thumb
 1105              		.thumb_func
 1106              		.type	RTC_GetMinutes, %function
 1107              	RTC_GetMinutes:
 1108              	.LFB82:
 405:main.c        ****     UBYTE t = RTC_ReadAddr(RTC_ADDR_MINS);
 1109              		.loc 1 405 0
 1110              		.cfi_startproc
 1111              		@ args = 0, pretend = 0, frame = 0
 1112              		@ frame_needed = 0, uses_anonymous_args = 0
 1113 0000 08B5     		push	{r3, lr}
 1114              		.cfi_def_cfa_offset 8
 1115              		.cfi_offset 3, -8
 1116              		.cfi_offset 14, -4
ARM GAS  C:\Users\laure\AppData\Local\Temp\ccHaU8kd.s 			page 31


 406:main.c        ****     t = (t & 0x0F) + ((t>>4) * 10);
 1117              		.loc 1 406 0
 1118 0002 0120     		movs	r0, #1
 1119 0004 FFF7FEFF 		bl	RTC_ReadAddr
 1120              	.LVL111:
 407:main.c        ****     return t;
 1121              		.loc 1 407 0
 1122 0008 00F00F01 		and	r1, r0, #15
 1123 000c 0309     		lsrs	r3, r0, #4
 1124 000e 03EB8303 		add	r3, r3, r3, lsl #2
 1125 0012 5A00     		lsls	r2, r3, #1
 1126 0014 D2B2     		uxtb	r2, r2
 1127 0016 8818     		adds	r0, r1, r2
 1128              	.LVL112:
 409:main.c        **** void RTC_SetMinutes(uint8_t t){
 1129              		.loc 1 409 0
 1130 0018 C0B2     		uxtb	r0, r0
 1131 001a 08BD     		pop	{r3, pc}
 1132              		.cfi_endproc
 1133              	.LFE82:
 1134              		.size	RTC_GetMinutes, .-RTC_GetMinutes
 1135              		.section	.text.RTC_GetHours,"ax",%progbits
 1136              		.align	2
 1137              		.global	RTC_GetHours
 1138              		.thumb
 1139              		.thumb_func
 1140              		.type	RTC_GetHours, %function
 1141              	RTC_GetHours:
 1142              	.LFB84:
 420:main.c        ****     UBYTE t = RTC_ReadAddr(RTC_ADDR_HRS);
 1143              		.loc 1 420 0
 1144              		.cfi_startproc
 1145              		@ args = 0, pretend = 0, frame = 0
 1146              		@ frame_needed = 0, uses_anonymous_args = 0
 1147 0000 08B5     		push	{r3, lr}
 1148              		.cfi_def_cfa_offset 8
 1149              		.cfi_offset 3, -8
 1150              		.cfi_offset 14, -4
 421:main.c        ****     t = (t & 0x0F) + ((t>>4) & 0x3)*10;;
 1151              		.loc 1 421 0
 1152 0002 0220     		movs	r0, #2
 1153 0004 FFF7FEFF 		bl	RTC_ReadAddr
 1154              	.LVL113:
 422:main.c        ****     return t;
 1155              		.loc 1 422 0
 1156 0008 00F00F01 		and	r1, r0, #15
 1157 000c C0F30113 		ubfx	r3, r0, #4, #2
 1158 0010 03EB8303 		add	r3, r3, r3, lsl #2
 1159 0014 5A00     		lsls	r2, r3, #1
 1160 0016 D2B2     		uxtb	r2, r2
 1161 0018 8818     		adds	r0, r1, r2
 1162              	.LVL114:
 424:main.c        **** void RTC_SetHours(uint8_t hrs){
 1163              		.loc 1 424 0
 1164 001a C0B2     		uxtb	r0, r0
 1165 001c 08BD     		pop	{r3, pc}
 1166              		.cfi_endproc
ARM GAS  C:\Users\laure\AppData\Local\Temp\ccHaU8kd.s 			page 32


 1167              	.LFE84:
 1168              		.size	RTC_GetHours, .-RTC_GetHours
 1169 001e 00BF     		.section	.text.RTC_GetDay,"ax",%progbits
 1170              		.align	2
 1171              		.global	RTC_GetDay
 1172              		.thumb
 1173              		.thumb_func
 1174              		.type	RTC_GetDay, %function
 1175              	RTC_GetDay:
 1176              	.LFB86:
 436:main.c        ****     UBYTE t = RTC_ReadAddr(RTC_ADDR_DAY);
 1177              		.loc 1 436 0
 1178              		.cfi_startproc
 1179              		@ args = 0, pretend = 0, frame = 0
 1180              		@ frame_needed = 0, uses_anonymous_args = 0
 1181 0000 08B5     		push	{r3, lr}
 1182              		.cfi_def_cfa_offset 8
 1183              		.cfi_offset 3, -8
 1184              		.cfi_offset 14, -4
 437:main.c        ****     t = (t & 0x07);
 1185              		.loc 1 437 0
 1186 0002 0320     		movs	r0, #3
 1187 0004 FFF7FEFF 		bl	RTC_ReadAddr
 1188              	.LVL115:
 440:main.c        **** void RTC_SetDay(uint8_t day){
 1189              		.loc 1 440 0
 1190 0008 00F00700 		and	r0, r0, #7
 1191              	.LVL116:
 1192 000c 08BD     		pop	{r3, pc}
 1193              		.cfi_endproc
 1194              	.LFE86:
 1195              		.size	RTC_GetDay, .-RTC_GetDay
 1196 000e 00BF     		.section	.text.RTC_GetDate,"ax",%progbits
 1197              		.align	2
 1198              		.global	RTC_GetDate
 1199              		.thumb
 1200              		.thumb_func
 1201              		.type	RTC_GetDate, %function
 1202              	RTC_GetDate:
 1203              	.LFB88:
 445:main.c        ****     UBYTE t = RTC_ReadAddr(RTC_ADDR_DATE) & 0x3F;
 1204              		.loc 1 445 0
 1205              		.cfi_startproc
 1206              		@ args = 0, pretend = 0, frame = 0
 1207              		@ frame_needed = 0, uses_anonymous_args = 0
 1208 0000 08B5     		push	{r3, lr}
 1209              		.cfi_def_cfa_offset 8
 1210              		.cfi_offset 3, -8
 1211              		.cfi_offset 14, -4
 446:main.c        ****     t = (t & 0x0F) + ((t>>4) * 10);
 1212              		.loc 1 446 0
 1213 0002 0420     		movs	r0, #4
 1214 0004 FFF7FEFF 		bl	RTC_ReadAddr
 1215              	.LVL117:
 447:main.c        ****     return t;
 1216              		.loc 1 447 0
 1217 0008 C0F30113 		ubfx	r3, r0, #4, #2
ARM GAS  C:\Users\laure\AppData\Local\Temp\ccHaU8kd.s 			page 33


 1218 000c 03EB8303 		add	r3, r3, r3, lsl #2
 1219 0010 5A00     		lsls	r2, r3, #1
 1220 0012 00F00F00 		and	r0, r0, #15
 1221              	.LVL118:
 1222 0016 1044     		add	r0, r0, r2
 1223              	.LVL119:
 449:main.c        **** void RTC_SetDate(uint8_t t){
 1224              		.loc 1 449 0
 1225 0018 C0B2     		uxtb	r0, r0
 1226 001a 08BD     		pop	{r3, pc}
 1227              		.cfi_endproc
 1228              	.LFE88:
 1229              		.size	RTC_GetDate, .-RTC_GetDate
 1230              		.section	.text.RTC_GetMonth,"ax",%progbits
 1231              		.align	2
 1232              		.global	RTC_GetMonth
 1233              		.thumb
 1234              		.thumb_func
 1235              		.type	RTC_GetMonth, %function
 1236              	RTC_GetMonth:
 1237              	.LFB90:
 460:main.c        ****     uint8_t t = RTC_ReadAddr(RTC_ADDR_MON);
 1238              		.loc 1 460 0
 1239              		.cfi_startproc
 1240              		@ args = 0, pretend = 0, frame = 0
 1241              		@ frame_needed = 0, uses_anonymous_args = 0
 1242 0000 10B5     		push	{r4, lr}
 1243              		.cfi_def_cfa_offset 8
 1244              		.cfi_offset 4, -8
 1245              		.cfi_offset 14, -4
 461:main.c        ****     if(t & 1<<7){
 1246              		.loc 1 461 0
 1247 0002 0520     		movs	r0, #5
 1248 0004 FFF7FEFF 		bl	RTC_ReadAddr
 1249              	.LVL120:
 1250 0008 0446     		mov	r4, r0
 1251              	.LVL121:
 462:main.c        ****         // update century in SRAM and reset century bit 
 1252              		.loc 1 462 0
 1253 000a 10F0800F 		tst	r0, #128
 1254 000e 0CD0     		beq	.L95
 1255              	.LBB2:
 464:main.c        ****         milcentury += 1;
 1256              		.loc 1 464 0
 1257 0010 1420     		movs	r0, #20
 1258              	.LVL122:
 1259 0012 FFF7FEFF 		bl	RTC_ReadAddr
 1260              	.LVL123:
 465:main.c        ****         RTC_WriteAddr(RTC_SRAM_MILLENIUM_CENTURY, milcentury & 0xFF);
 1261              		.loc 1 465 0
 1262 0016 411C     		adds	r1, r0, #1
 1263              	.LVL124:
 466:main.c        ****         RTC_WriteAddr(RTC_ADDR_MON, t & ~(1<<7));
 1264              		.loc 1 466 0
 1265 0018 C9B2     		uxtb	r1, r1
 1266 001a 1420     		movs	r0, #20
 1267 001c FFF7FEFF 		bl	RTC_WriteAddr
ARM GAS  C:\Users\laure\AppData\Local\Temp\ccHaU8kd.s 			page 34


 1268              	.LVL125:
 467:main.c        ****     }
 1269              		.loc 1 467 0
 1270 0020 04F07F01 		and	r1, r4, #127
 1271 0024 0520     		movs	r0, #5
 1272 0026 FFF7FEFF 		bl	RTC_WriteAddr
 1273              	.LVL126:
 1274              	.L95:
 1275              	.LBE2:
 470:main.c        ****     return t;
 1276              		.loc 1 470 0
 1277 002a 04F00F00 		and	r0, r4, #15
 1278 002e C4F30014 		ubfx	r4, r4, #4, #1
 1279              	.LVL127:
 1280 0032 A200     		lsls	r2, r4, #2
 1281 0034 1444     		add	r4, r4, r2
 1282 0036 6300     		lsls	r3, r4, #1
 1283 0038 DBB2     		uxtb	r3, r3
 1284 003a 1844     		add	r0, r0, r3
 1285              	.LVL128:
 472:main.c        **** void RTC_SetMonth(uint8_t t){
 1286              		.loc 1 472 0
 1287 003c C0B2     		uxtb	r0, r0
 1288 003e 10BD     		pop	{r4, pc}
 1289              		.cfi_endproc
 1290              	.LFE90:
 1291              		.size	RTC_GetMonth, .-RTC_GetMonth
 1292              		.section	.text.RTC_SetMonth,"ax",%progbits
 1293              		.align	2
 1294              		.global	RTC_SetMonth
 1295              		.thumb
 1296              		.thumb_func
 1297              		.type	RTC_SetMonth, %function
 1298              	RTC_SetMonth:
 1299              	.LFB91:
 473:main.c        ****     uint8_t centuryBit = RTC_ReadAddr(RTC_ADDR_MON) & 1<<7;
 1300              		.loc 1 473 0
 1301              		.cfi_startproc
 1302              		@ args = 0, pretend = 0, frame = 0
 1303              		@ frame_needed = 0, uses_anonymous_args = 0
 1304              	.LVL129:
 1305 0000 10B5     		push	{r4, lr}
 1306              		.cfi_def_cfa_offset 8
 1307              		.cfi_offset 4, -8
 1308              		.cfi_offset 14, -4
 1309 0002 0446     		mov	r4, r0
 474:main.c        ****     if(centuryBit){
 1310              		.loc 1 474 0
 1311 0004 0520     		movs	r0, #5
 1312              	.LVL130:
 1313 0006 FFF7FEFF 		bl	RTC_ReadAddr
 1314              	.LVL131:
 475:main.c        ****         // update century in SRAM and reset century bit 
 1315              		.loc 1 475 0
 1316 000a 10F0800F 		tst	r0, #128
 1317 000e 07D0     		beq	.L98
 1318              	.LBB3:
ARM GAS  C:\Users\laure\AppData\Local\Temp\ccHaU8kd.s 			page 35


 477:main.c        ****         milcentury += 1;
 1319              		.loc 1 477 0
 1320 0010 1420     		movs	r0, #20
 1321              	.LVL132:
 1322 0012 FFF7FEFF 		bl	RTC_ReadAddr
 1323              	.LVL133:
 478:main.c        ****         RTC_WriteAddr(RTC_SRAM_MILLENIUM_CENTURY, milcentury & 0xFF);
 1324              		.loc 1 478 0
 1325 0016 411C     		adds	r1, r0, #1
 1326              	.LVL134:
 479:main.c        ****     }
 1327              		.loc 1 479 0
 1328 0018 C9B2     		uxtb	r1, r1
 1329 001a 1420     		movs	r0, #20
 1330 001c FFF7FEFF 		bl	RTC_WriteAddr
 1331              	.LVL135:
 1332              	.L98:
 1333              	.LBE3:
 481:main.c        ****     uint8_t tens = ((t % 100) - ones)/10/*tens*/;
 1334              		.loc 1 481 0
 1335 0020 104B     		ldr	r3, .L100
 1336 0022 A3FB0423 		umull	r2, r3, r3, r4
 1337 0026 DB08     		lsrs	r3, r3, #3
 1338 0028 03EB8303 		add	r3, r3, r3, lsl #2
 1339 002c 5900     		lsls	r1, r3, #1
 1340 002e 611A     		subs	r1, r4, r1
 1341 0030 C9B2     		uxtb	r1, r1
 1342              	.LVL136:
 482:main.c        ****     t =  ones + ((tens&0x01)<<4);
 1343              		.loc 1 482 0
 1344 0032 0D48     		ldr	r0, .L100+4
 1345 0034 A0FB0430 		umull	r3, r0, r0, r4
 1346 0038 4009     		lsrs	r0, r0, #5
 1347 003a 6423     		movs	r3, #100
 1348 003c 03FB1040 		mls	r0, r3, r0, r4
 1349 0040 C0B2     		uxtb	r0, r0
 1350 0042 401A     		subs	r0, r0, r1
 1351 0044 094B     		ldr	r3, .L100+8
 1352 0046 83FB0023 		smull	r2, r3, r3, r0
 1353 004a C017     		asrs	r0, r0, #31
 1354 004c C0EBA300 		rsb	r0, r0, r3, asr #2
 1355              	.LVL137:
 483:main.c        ****     #ifdef DEBUG_RTC
 1356              		.loc 1 483 0
 1357 0050 0001     		lsls	r0, r0, #4
 1358              	.LVL138:
 1359 0052 00F01000 		and	r0, r0, #16
 1360 0056 0144     		add	r1, r1, r0
 1361              	.LVL139:
 487:main.c        ****     
 1362              		.loc 1 487 0
 1363 0058 C9B2     		uxtb	r1, r1
 1364 005a 0520     		movs	r0, #5
 1365 005c FFF7FEFF 		bl	RTC_WriteAddr
 1366              	.LVL140:
 1367 0060 10BD     		pop	{r4, pc}
 1368              	.LVL141:
ARM GAS  C:\Users\laure\AppData\Local\Temp\ccHaU8kd.s 			page 36


 1369              	.L101:
 1370 0062 00BF     		.align	2
 1371              	.L100:
 1372 0064 CDCCCCCC 		.word	-858993459
 1373 0068 1F85EB51 		.word	1374389535
 1374 006c 67666666 		.word	1717986919
 1375              		.cfi_endproc
 1376              	.LFE91:
 1377              		.size	RTC_SetMonth, .-RTC_SetMonth
 1378              		.section	.text.RTC_GetYear,"ax",%progbits
 1379              		.align	2
 1380              		.global	RTC_GetYear
 1381              		.thumb
 1382              		.thumb_func
 1383              		.type	RTC_GetYear, %function
 1384              	RTC_GetYear:
 1385              	.LFB92:
 491:main.c        ****     uint8_t mon = RTC_ReadAddr(RTC_ADDR_MON);
 1386              		.loc 1 491 0
 1387              		.cfi_startproc
 1388              		@ args = 0, pretend = 0, frame = 0
 1389              		@ frame_needed = 0, uses_anonymous_args = 0
 1390 0000 38B5     		push	{r3, r4, r5, lr}
 1391              		.cfi_def_cfa_offset 16
 1392              		.cfi_offset 3, -16
 1393              		.cfi_offset 4, -12
 1394              		.cfi_offset 5, -8
 1395              		.cfi_offset 14, -4
 492:main.c        ****     uint8_t milcentury = RTC_ReadAddr(RTC_SRAM_MILLENIUM_CENTURY);
 1396              		.loc 1 492 0
 1397 0002 0520     		movs	r0, #5
 1398 0004 FFF7FEFF 		bl	RTC_ReadAddr
 1399              	.LVL142:
 1400 0008 0546     		mov	r5, r0
 1401              	.LVL143:
 493:main.c        ****     if(mon & 1<<7){
 1402              		.loc 1 493 0
 1403 000a 1420     		movs	r0, #20
 1404 000c FFF7FEFF 		bl	RTC_ReadAddr
 1405              	.LVL144:
 1406 0010 0446     		mov	r4, r0
 1407              	.LVL145:
 494:main.c        ****         // update century in SRAM and clear century bit   
 1408              		.loc 1 494 0
 1409 0012 15F0800F 		tst	r5, #128
 1410 0016 0AD0     		beq	.L103
 496:main.c        ****         RTC_WriteAddr(RTC_SRAM_MILLENIUM_CENTURY, milcentury & 0xFF);
 1411              		.loc 1 496 0
 1412 0018 0134     		adds	r4, r4, #1
 1413              	.LVL146:
 1414 001a E4B2     		uxtb	r4, r4
 1415              	.LVL147:
 497:main.c        ****         RTC_WriteAddr(RTC_ADDR_MON, mon & ~(1<<7));
 1416              		.loc 1 497 0
 1417 001c 2146     		mov	r1, r4
 1418 001e 1420     		movs	r0, #20
 1419 0020 FFF7FEFF 		bl	RTC_WriteAddr
ARM GAS  C:\Users\laure\AppData\Local\Temp\ccHaU8kd.s 			page 37


 1420              	.LVL148:
 498:main.c        ****     }
 1421              		.loc 1 498 0
 1422 0024 05F07F01 		and	r1, r5, #127
 1423 0028 0520     		movs	r0, #5
 1424 002a FFF7FEFF 		bl	RTC_WriteAddr
 1425              	.LVL149:
 1426              	.L103:
 500:main.c        ****     year = (year & 0x0F) + ((year>>4) * 10);
 1427              		.loc 1 500 0
 1428 002e 0620     		movs	r0, #6
 1429 0030 FFF7FEFF 		bl	RTC_ReadAddr
 1430              	.LVL150:
 501:main.c        ****     return (year + milcentury*100);
 1431              		.loc 1 501 0
 1432 0034 00F00F01 		and	r1, r0, #15
 1433 0038 0209     		lsrs	r2, r0, #4
 1434 003a 02EB8202 		add	r2, r2, r2, lsl #2
 1435 003e 5300     		lsls	r3, r2, #1
 1436 0040 DBB2     		uxtb	r3, r3
 1437 0042 C818     		adds	r0, r1, r3
 1438              	.LVL151:
 1439 0044 C3B2     		uxtb	r3, r0
 1440              	.LVL152:
 502:main.c        **** }
 1441              		.loc 1 502 0
 1442 0046 04EB8404 		add	r4, r4, r4, lsl #2
 1443              	.LVL153:
 1444 004a 04EB8404 		add	r4, r4, r4, lsl #2
 1445 004e A000     		lsls	r0, r4, #2
 1446 0050 1844     		add	r0, r0, r3
 503:main.c        **** 
 1447              		.loc 1 503 0
 1448 0052 80B2     		uxth	r0, r0
 1449 0054 38BD     		pop	{r3, r4, r5, pc}
 1450              		.cfi_endproc
 1451              	.LFE92:
 1452              		.size	RTC_GetYear, .-RTC_GetYear
 1453 0056 00BF     		.section	.text.RTC_SetYear,"ax",%progbits
 1454              		.align	2
 1455              		.global	RTC_SetYear
 1456              		.thumb
 1457              		.thumb_func
 1458              		.type	RTC_SetYear, %function
 1459              	RTC_SetYear:
 1460              	.LFB93:
 505:main.c        ****     uint8_t ones = t % 10/*0-9*/;
 1461              		.loc 1 505 0
 1462              		.cfi_startproc
 1463              		@ args = 0, pretend = 0, frame = 0
 1464              		@ frame_needed = 0, uses_anonymous_args = 0
 1465              	.LVL154:
 1466 0000 38B5     		push	{r3, r4, r5, lr}
 1467              		.cfi_def_cfa_offset 16
 1468              		.cfi_offset 3, -16
 1469              		.cfi_offset 4, -12
 1470              		.cfi_offset 5, -8
ARM GAS  C:\Users\laure\AppData\Local\Temp\ccHaU8kd.s 			page 38


 1471              		.cfi_offset 14, -4
 506:main.c        ****     uint8_t tens = ((t % 100) - ones);
 1472              		.loc 1 506 0
 1473 0002 184D     		ldr	r5, .L107
 1474 0004 A5FB0032 		umull	r3, r2, r5, r0
 1475 0008 D208     		lsrs	r2, r2, #3
 1476 000a 02EB8202 		add	r2, r2, r2, lsl #2
 1477 000e 5100     		lsls	r1, r2, #1
 1478 0010 411A     		subs	r1, r0, r1
 1479 0012 C9B2     		uxtb	r1, r1
 1480              	.LVL155:
 507:main.c        ****     uint8_t century = (t - ones -tens)/100;
 1481              		.loc 1 507 0
 1482 0014 144C     		ldr	r4, .L107+4
 1483 0016 A4FB0032 		umull	r3, r2, r4, r0
 1484 001a 5209     		lsrs	r2, r2, #5
 1485 001c 6423     		movs	r3, #100
 1486 001e 03FB1202 		mls	r2, r3, r2, r0
 1487 0022 521A     		subs	r2, r2, r1
 1488 0024 D3B2     		uxtb	r3, r2
 1489              	.LVL156:
 508:main.c        ****     tens = tens/10;
 1490              		.loc 1 508 0
 1491 0026 401A     		subs	r0, r0, r1
 1492              	.LVL157:
 1493 0028 C01A     		subs	r0, r0, r3
 1494 002a 84FB0024 		smull	r2, r4, r4, r0
 1495 002e C017     		asrs	r0, r0, #31
 1496 0030 C0EB6414 		rsb	r4, r0, r4, asr #5
 1497 0034 E4B2     		uxtb	r4, r4
 1498              	.LVL158:
 509:main.c        ****     
 1499              		.loc 1 509 0
 1500 0036 A5FB0323 		umull	r2, r3, r5, r3
 1501              	.LVL159:
 1502 003a DB08     		lsrs	r3, r3, #3
 1503              	.LVL160:
 516:main.c        ****     #ifdef DEBUG_RTC
 1504              		.loc 1 516 0
 1505 003c 1B01     		lsls	r3, r3, #4
 1506              	.LVL161:
 1507 003e DBB2     		uxtb	r3, r3
 1508 0040 1944     		add	r1, r1, r3
 1509              	.LVL162:
 521:main.c        ****     
 1510              		.loc 1 521 0
 1511 0042 C9B2     		uxtb	r1, r1
 1512              	.LVL163:
 1513 0044 0620     		movs	r0, #6
 1514 0046 FFF7FEFF 		bl	RTC_WriteAddr
 1515              	.LVL164:
 524:main.c        ****     RTC_WriteAddr(RTC_ADDR_MON, mon & ~(1<<7));
 1516              		.loc 1 524 0
 1517 004a 0520     		movs	r0, #5
 1518 004c FFF7FEFF 		bl	RTC_ReadAddr
 1519              	.LVL165:
 525:main.c        ****     RTC_WriteAddr(RTC_SRAM_MILLENIUM_CENTURY, century & 0xFF);
ARM GAS  C:\Users\laure\AppData\Local\Temp\ccHaU8kd.s 			page 39


 1520              		.loc 1 525 0
 1521 0050 00F07F01 		and	r1, r0, #127
 1522 0054 0520     		movs	r0, #5
 1523              	.LVL166:
 1524 0056 FFF7FEFF 		bl	RTC_WriteAddr
 1525              	.LVL167:
 526:main.c        **** }
 1526              		.loc 1 526 0
 1527 005a 2146     		mov	r1, r4
 1528 005c 1420     		movs	r0, #20
 1529 005e FFF7FEFF 		bl	RTC_WriteAddr
 1530              	.LVL168:
 1531 0062 38BD     		pop	{r3, r4, r5, pc}
 1532              	.LVL169:
 1533              	.L108:
 1534              		.align	2
 1535              	.L107:
 1536 0064 CDCCCCCC 		.word	-858993459
 1537 0068 1F85EB51 		.word	1374389535
 1538              		.cfi_endproc
 1539              	.LFE93:
 1540              		.size	RTC_SetYear, .-RTC_SetYear
 1541              		.section	.text.RTC_Init,"ax",%progbits
 1542              		.align	2
 1543              		.global	RTC_Init
 1544              		.thumb
 1545              		.thumb_func
 1546              		.type	RTC_Init, %function
 1547              	RTC_Init:
 1548              	.LFB78:
 359:main.c        ****     // Get hours, check current 12/24h setting
 1549              		.loc 1 359 0
 1550              		.cfi_startproc
 1551              		@ args = 0, pretend = 0, frame = 0
 1552              		@ frame_needed = 0, uses_anonymous_args = 0
 1553 0000 10B5     		push	{r4, lr}
 1554              		.cfi_def_cfa_offset 8
 1555              		.cfi_offset 4, -8
 1556              		.cfi_offset 14, -4
 362:main.c        ****     if(hrs & RTC_HOURS_12){ // If AM/PM mode enabled, and it's PM
 1557              		.loc 1 362 0
 1558 0002 0220     		movs	r0, #2
 1559 0004 FFF7FEFF 		bl	RTC_ReadAddr
 1560              	.LVL170:
 363:main.c        ****         hrs = (hrs & 0x0F) + ((hrs>>4) & 0x1)*10;
 1561              		.loc 1 363 0
 1562 0008 10F0400F 		tst	r0, #64
 1563 000c 0DD0     		beq	.L110
 364:main.c        ****         hrs += 12;
 1564              		.loc 1 364 0
 1565 000e 00F00F04 		and	r4, r0, #15
 1566 0012 C0F30012 		ubfx	r2, r0, #4, #1
 1567 0016 9100     		lsls	r1, r2, #2
 1568 0018 0A44     		add	r2, r2, r1
 1569 001a 5300     		lsls	r3, r2, #1
 1570 001c DBB2     		uxtb	r3, r3
 1571 001e E018     		adds	r0, r4, r3
ARM GAS  C:\Users\laure\AppData\Local\Temp\ccHaU8kd.s 			page 40


 1572              	.LVL171:
 1573 0020 C0B2     		uxtb	r0, r0
 1574              	.LVL172:
 365:main.c        ****         RTC_SetHours(hrs);
 1575              		.loc 1 365 0
 1576 0022 0C30     		adds	r0, r0, #12
 1577              	.LVL173:
 366:main.c        ****     }
 1578              		.loc 1 366 0
 1579 0024 C0B2     		uxtb	r0, r0
 1580 0026 FFF7FEFF 		bl	RTC_SetHours
 1581              	.LVL174:
 1582              	.L110:
 370:main.c        ****     RTC_SetMinutes(59);
 1583              		.loc 1 370 0
 1584 002a 1720     		movs	r0, #23
 1585 002c FFF7FEFF 		bl	RTC_SetHours
 1586              	.LVL175:
 371:main.c        ****     RTC_SetSeconds(48);
 1587              		.loc 1 371 0
 1588 0030 3B20     		movs	r0, #59
 1589 0032 FFF7FEFF 		bl	RTC_SetMinutes
 1590              	.LVL176:
 372:main.c        ****     
 1591              		.loc 1 372 0
 1592 0036 3020     		movs	r0, #48
 1593 0038 FFF7FEFF 		bl	RTC_SetSeconds
 1594              	.LVL177:
 374:main.c        ****     RTC_SetDay(7);
 1595              		.loc 1 374 0
 1596 003c 1F20     		movs	r0, #31
 1597 003e FFF7FEFF 		bl	RTC_SetDate
 1598              	.LVL178:
 375:main.c        ****     RTC_SetMonth(12);
 1599              		.loc 1 375 0
 1600 0042 0720     		movs	r0, #7
 1601 0044 FFF7FEFF 		bl	RTC_SetDay
 1602              	.LVL179:
 376:main.c        ****     RTC_SetYear(1999);
 1603              		.loc 1 376 0
 1604 0048 0C20     		movs	r0, #12
 1605 004a FFF7FEFF 		bl	RTC_SetMonth
 1606              	.LVL180:
 377:main.c        ****     
 1607              		.loc 1 377 0
 1608 004e 40F2CF70 		movw	r0, #1999
 1609 0052 FFF7FEFF 		bl	RTC_SetYear
 1610              	.LVL181:
 380:main.c        ****     CyDelay(10);
 1611              		.loc 1 380 0
 1612 0056 0021     		movs	r1, #0
 1613 0058 0E20     		movs	r0, #14
 1614 005a FFF7FEFF 		bl	RTC_WriteAddr
 1615              	.LVL182:
 381:main.c        **** }
 1616              		.loc 1 381 0
 1617 005e 0A20     		movs	r0, #10
ARM GAS  C:\Users\laure\AppData\Local\Temp\ccHaU8kd.s 			page 41


 1618 0060 FFF7FEFF 		bl	CyDelay
 1619              	.LVL183:
 1620 0064 10BD     		pop	{r4, pc}
 1621              		.cfi_endproc
 1622              	.LFE78:
 1623              		.size	RTC_Init, .-RTC_Init
 1624 0066 00BF     		.section	.text.Time_Init,"ax",%progbits
 1625              		.align	2
 1626              		.global	Time_Init
 1627              		.thumb
 1628              		.thumb_func
 1629              		.type	Time_Init, %function
 1630              	Time_Init:
 1631              	.LFB67:
 212:main.c        ****     // ==============   RTC and time   ================
 1632              		.loc 1 212 0
 1633              		.cfi_startproc
 1634              		@ args = 0, pretend = 0, frame = 0
 1635              		@ frame_needed = 0, uses_anonymous_args = 0
 1636              	.LVL184:
 1637 0000 38B5     		push	{r3, r4, r5, lr}
 1638              		.cfi_def_cfa_offset 16
 1639              		.cfi_offset 3, -16
 1640              		.cfi_offset 4, -12
 1641              		.cfi_offset 5, -8
 1642              		.cfi_offset 14, -4
 1643 0002 0546     		mov	r5, r0
 1644 0004 0C46     		mov	r4, r1
 214:main.c        ****     time->ms = 0;
 1645              		.loc 1 214 0
 1646 0006 FFF7FEFF 		bl	RTC_Init
 1647              	.LVL185:
 215:main.c        ****     time->seconds = RTC_GetSeconds();
 1648              		.loc 1 215 0
 1649 000a 0023     		movs	r3, #0
 1650 000c AB80     		strh	r3, [r5, #4]	@ movhi
 216:main.c        ****     time->minutes = RTC_GetMinutes();
 1651              		.loc 1 216 0
 1652 000e FFF7FEFF 		bl	RTC_GetSeconds
 1653              	.LVL186:
 1654 0012 A870     		strb	r0, [r5, #2]
 217:main.c        ****     time->hours = RTC_GetHours();
 1655              		.loc 1 217 0
 1656 0014 FFF7FEFF 		bl	RTC_GetMinutes
 1657              	.LVL187:
 1658 0018 6870     		strb	r0, [r5, #1]
 218:main.c        ****     
 1659              		.loc 1 218 0
 1660 001a FFF7FEFF 		bl	RTC_GetHours
 1661              	.LVL188:
 1662 001e 2870     		strb	r0, [r5]
 220:main.c        ****     date->day = RTC_GetDay();
 1663              		.loc 1 220 0
 1664 0020 FFF7FEFF 		bl	RTC_GetDate
 1665              	.LVL189:
 1666 0024 6070     		strb	r0, [r4, #1]
 221:main.c        ****     date->month = RTC_GetMonth();
ARM GAS  C:\Users\laure\AppData\Local\Temp\ccHaU8kd.s 			page 42


 1667              		.loc 1 221 0
 1668 0026 FFF7FEFF 		bl	RTC_GetDay
 1669              	.LVL190:
 1670 002a 2070     		strb	r0, [r4]
 222:main.c        ****     date->year = RTC_GetYear();
 1671              		.loc 1 222 0
 1672 002c FFF7FEFF 		bl	RTC_GetMonth
 1673              	.LVL191:
 1674 0030 A070     		strb	r0, [r4, #2]
 223:main.c        ****     
 1675              		.loc 1 223 0
 1676 0032 FFF7FEFF 		bl	RTC_GetYear
 1677              	.LVL192:
 1678 0036 A080     		strh	r0, [r4, #4]	@ movhi
 226:main.c        ****     MILLIS_COUNTER_Start();
 1679              		.loc 1 226 0
 1680 0038 0A48     		ldr	r0, .L114
 1681 003a FFF7FEFF 		bl	MILLIS_COUNTER_WritePeriod
 1682              	.LVL193:
 227:main.c        ****     
 1683              		.loc 1 227 0
 1684 003e FFF7FEFF 		bl	MILLIS_COUNTER_Start
 1685              	.LVL194:
 229:main.c        ****     SEC_COUNTER_Stop();
 1686              		.loc 1 229 0
 1687 0042 FFF7FEFF 		bl	SEC_COUNTER_Start
 1688              	.LVL195:
 230:main.c        ****     SEC_COUNTER_WriteCounter(RTC_GetSeconds());
 1689              		.loc 1 230 0
 1690 0046 FFF7FEFF 		bl	SEC_COUNTER_Stop
 1691              	.LVL196:
 231:main.c        ****     SEC_COUNTER_Enable();
 1692              		.loc 1 231 0
 1693 004a FFF7FEFF 		bl	RTC_GetSeconds
 1694              	.LVL197:
 1695 004e FFF7FEFF 		bl	SEC_COUNTER_WriteCounter
 1696              	.LVL198:
 232:main.c        ****     CTR_SYNC_EN_Write(0xFF); // Start time counters
 1697              		.loc 1 232 0
 1698 0052 FFF7FEFF 		bl	SEC_COUNTER_Enable
 1699              	.LVL199:
 233:main.c        ****     
 1700              		.loc 1 233 0
 1701 0056 FF20     		movs	r0, #255
 1702 0058 FFF7FEFF 		bl	CTR_SYNC_EN_Write
 1703              	.LVL200:
 236:main.c        **** }
 1704              		.loc 1 236 0
 1705 005c FFF7FEFF 		bl	RTC_SEC_COUNTER_Start
 1706              	.LVL201:
 1707 0060 38BD     		pop	{r3, r4, r5, pc}
 1708              	.LVL202:
 1709              	.L115:
 1710 0062 00BF     		.align	2
 1711              	.L114:
 1712 0064 C0C62D00 		.word	3000000
 1713              		.cfi_endproc
ARM GAS  C:\Users\laure\AppData\Local\Temp\ccHaU8kd.s 			page 43


 1714              	.LFE67:
 1715              		.size	Time_Init, .-Time_Init
 1716              		.section	.text.main,"ax",%progbits
 1717              		.align	2
 1718              		.global	main
 1719              		.thumb
 1720              		.thumb_func
 1721              		.type	main, %function
 1722              	main:
 1723              	.LFB66:
 128:main.c        ****     // ========================================
 1724              		.loc 1 128 0
 1725              		.cfi_startproc
 1726              		@ args = 0, pretend = 0, frame = 104
 1727              		@ frame_needed = 0, uses_anonymous_args = 0
 1728 0000 10B5     		push	{r4, lr}
 1729              		.cfi_def_cfa_offset 8
 1730              		.cfi_offset 4, -8
 1731              		.cfi_offset 14, -4
 1732 0002 9AB0     		sub	sp, sp, #104
 1733              		.cfi_def_cfa_offset 112
 132:main.c        ****     // Disable specific interrupts for setup
 1734              		.loc 1 132 0
 1735              		.syntax unified
 1736              	@ 132 "main.c" 1
 1737 0004 62B6     		CPSIE   i
 1738              	@ 0 "" 2
 134:main.c        ****     // Set ms ctr to interrupt on capture
 1739              		.loc 1 134 0
 1740              		.thumb
 1741              		.syntax unified
 1742 0006 FFF7FEFF 		bl	MILLIS_COUNTER_CAPT_INT_Disable
 1743              	.LVL203:
 136:main.c        ****     SEC_CTR_TC_INT_SetVector(SEC_CTR_TC_INTVECT);
 1744              		.loc 1 136 0
 1745 000a 2E48     		ldr	r0, .L122
 1746 000c FFF7FEFF 		bl	MILLIS_COUNTER_CAPT_INT_SetVector
 1747              	.LVL204:
 137:main.c        ****     
 1748              		.loc 1 137 0
 1749 0010 2D48     		ldr	r0, .L122+4
 1750 0012 FFF7FEFF 		bl	SEC_CTR_TC_INT_SetVector
 1751              	.LVL205:
 142:main.c        ****     
 1752              		.loc 1 142 0
 1753 0016 FFF7FEFF 		bl	I2C_Start
 1754              	.LVL206:
 151:main.c        ****     
 1755              		.loc 1 151 0
 1756 001a 0020     		movs	r0, #0
 1757 001c FFF7FEFF 		bl	MILLIS_CTR_CAPTSEL_Write
 1758              	.LVL207:
 159:main.c        ****     // ========================================
 1759              		.loc 1 159 0
 1760 0020 0020     		movs	r0, #0
 1761 0022 FFF7FEFF 		bl	DebugLED_Write
 1762              	.LVL208:
ARM GAS  C:\Users\laure\AppData\Local\Temp\ccHaU8kd.s 			page 44


 163:main.c        ****     
 1763              		.loc 1 163 0
 1764 0026 2949     		ldr	r1, .L122+8
 1765 0028 2948     		ldr	r0, .L122+12
 1766 002a FFF7FEFF 		bl	Time_Init
 1767              	.LVL209:
 165:main.c        **** 
 1768              		.loc 1 165 0
 1769 002e 0120     		movs	r0, #1
 1770 0030 FFF7FEFF 		bl	DebugLED_Write
 1771              	.LVL210:
 169:main.c        ****     while(USBUART_GetConfiguration()==0);
 1772              		.loc 1 169 0
 1773 0034 0121     		movs	r1, #1
 1774 0036 0020     		movs	r0, #0
 1775 0038 FFF7FEFF 		bl	USBUART_Start
 1776              	.LVL211:
 1777              	.L117:
 170:main.c        **** 
 1778              		.loc 1 170 0 discriminator 1
 1779 003c FFF7FEFF 		bl	USBUART_GetConfiguration
 1780              	.LVL212:
 1781 0040 0028     		cmp	r0, #0
 1782 0042 FBD0     		beq	.L117
 172:main.c        **** 
 1783              		.loc 1 172 0
 1784 0044 0020     		movs	r0, #0
 1785 0046 FFF7FEFF 		bl	DebugLED_Write
 1786              	.LVL213:
 175:main.c        ****     SEC_CTR_TC_INT_Enable();
 1787              		.loc 1 175 0
 1788 004a FFF7FEFF 		bl	MILLIS_COUNTER_CAPT_INT_Enable
 1789              	.LVL214:
 176:main.c        ****     
 1790              		.loc 1 176 0
 1791 004e FFF7FEFF 		bl	SEC_CTR_TC_INT_Enable
 1792              	.LVL215:
 1793              	.L120:
 189:main.c        ****             MS_CALIB_FLAG = 0;
 1794              		.loc 1 189 0
 1795 0052 204B     		ldr	r3, .L122+16
 1796 0054 1B68     		ldr	r3, [r3]
 1797 0056 23B1     		cbz	r3, .L118
 190:main.c        ****             Time_CalibrateMillis();
 1798              		.loc 1 190 0
 1799 0058 0022     		movs	r2, #0
 1800 005a 1E4B     		ldr	r3, .L122+16
 1801 005c 1A60     		str	r2, [r3]
 191:main.c        ****         }
 1802              		.loc 1 191 0
 1803 005e FFF7FEFF 		bl	Time_CalibrateMillis
 1804              	.LVL216:
 1805              	.L118:
 193:main.c        ****             INCR_TIME_FLAG = 0;
 1806              		.loc 1 193 0
 1807 0062 1C4B     		ldr	r3, .L122+16
 1808 0064 5B68     		ldr	r3, [r3, #4]
ARM GAS  C:\Users\laure\AppData\Local\Temp\ccHaU8kd.s 			page 45


 1809 0066 63B1     		cbz	r3, .L119
 194:main.c        ****             incrMins(&systime, &sysdate);
 1810              		.loc 1 194 0
 1811 0068 0022     		movs	r2, #0
 1812 006a 1A4B     		ldr	r3, .L122+16
 1813 006c 5A60     		str	r2, [r3, #4]
 195:main.c        ****             DebugLED_Write(~DebugLED_Read());
 1814              		.loc 1 195 0
 1815 006e 1749     		ldr	r1, .L122+8
 1816 0070 1748     		ldr	r0, .L122+12
 1817 0072 FFF7FEFF 		bl	incrMins
 1818              	.LVL217:
 196:main.c        ****         }
 1819              		.loc 1 196 0
 1820 0076 FFF7FEFF 		bl	DebugLED_Read
 1821              	.LVL218:
 1822 007a C043     		mvns	r0, r0
 1823 007c C0B2     		uxtb	r0, r0
 1824 007e FFF7FEFF 		bl	DebugLED_Write
 1825              	.LVL219:
 1826              	.L119:
 199:main.c        ****         systime.ms = GetMillis();
 1827              		.loc 1 199 0
 1828 0082 FFF7FEFF 		bl	SEC_COUNTER_ReadCounter
 1829              	.LVL220:
 1830 0086 124C     		ldr	r4, .L122+12
 1831 0088 A070     		strb	r0, [r4, #2]
 200:main.c        ****         
 1832              		.loc 1 200 0
 1833 008a FFF7FEFF 		bl	GetMillis
 1834              	.LVL221:
 1835 008e A080     		strh	r0, [r4, #4]	@ movhi
 202:main.c        ****         TimeToString(systime, strbuf);
 1836              		.loc 1 202 0
 1837 0090 1148     		ldr	r0, .L122+20
 1838 0092 FFF7FEFF 		bl	USBUART_PutString
 1839              	.LVL222:
 203:main.c        ****         USBUART_PutString(strbuf);
 1840              		.loc 1 203 0
 1841 0096 01AA     		add	r2, sp, #4
 1842 0098 2068     		ldr	r0, [r4]	@ unaligned
 1843 009a A188     		ldrh	r1, [r4, #4]
 1844 009c FFF7FEFF 		bl	TimeToString
 1845              	.LVL223:
 204:main.c        ****         DateToString(sysdate, strbuf);
 1846              		.loc 1 204 0
 1847 00a0 01A8     		add	r0, sp, #4
 1848 00a2 FFF7FEFF 		bl	USBUART_PutString
 1849              	.LVL224:
 205:main.c        ****         USBUART_PutString(strbuf);
 1850              		.loc 1 205 0
 1851 00a6 094B     		ldr	r3, .L122+8
 1852 00a8 01AA     		add	r2, sp, #4
 1853 00aa 1868     		ldr	r0, [r3]	@ unaligned
 1854 00ac 9988     		ldrh	r1, [r3, #4]
 1855 00ae FFF7FEFF 		bl	DateToString
 1856              	.LVL225:
ARM GAS  C:\Users\laure\AppData\Local\Temp\ccHaU8kd.s 			page 46


 206:main.c        ****     
 1857              		.loc 1 206 0
 1858 00b2 01A8     		add	r0, sp, #4
 1859 00b4 FFF7FEFF 		bl	USBUART_PutString
 1860              	.LVL226:
 208:main.c        ****     }
 1861              		.loc 1 208 0
 1862 00b8 4FF47A70 		mov	r0, #1000
 1863 00bc FFF7FEFF 		bl	CyDelay
 1864              	.LVL227:
 209:main.c        **** }
 1865              		.loc 1 209 0
 1866 00c0 C7E7     		b	.L120
 1867              	.L123:
 1868 00c2 00BF     		.align	2
 1869              	.L122:
 1870 00c4 00000000 		.word	MS_CALIBRATION_INTVECT
 1871 00c8 00000000 		.word	SEC_CTR_TC_INTVECT
 1872 00cc 00000000 		.word	sysdate
 1873 00d0 00000000 		.word	systime
 1874 00d4 00000000 		.word	.LANCHOR0
 1875 00d8 40000000 		.word	.LC13
 1876              		.cfi_endproc
 1877              	.LFE66:
 1878              		.size	main, .-main
 1879              		.comm	sysdate,6,4
 1880              		.comm	systime,6,4
 1881              		.global	INCR_TIME_FLAG
 1882              		.global	MS_CALIB_FLAG
 1883              		.section	.rodata
 1884              		.align	2
 1885              		.set	.LANCHOR1,. + 0
 1886              	.LC11:
 1887 0000 44000000 		.word	.LC0
 1888 0004 48000000 		.word	.LC1
 1889 0008 4C000000 		.word	.LC2
 1890 000c 50000000 		.word	.LC3
 1891 0010 54000000 		.word	.LC4
 1892 0014 58000000 		.word	.LC5
 1893 0018 5C000000 		.word	.LC6
 1894              		.section	.rodata.str1.4,"aMS",%progbits,1
 1895              		.align	2
 1896              	.LC8:
 1897 0000 25640D0A 		.ascii	"%d\015\012\000"
 1897      00
 1898 0005 000000   		.space	3
 1899              	.LC9:
 1900 0008 25733A20 		.ascii	"%s: %u\015\012\000"
 1900      25750D0A 
 1900      00
 1901 0011 000000   		.space	3
 1902              	.LC10:
 1903 0014 25303264 		.ascii	"%02d:%02d:%02d:%03d\015\012\000"
 1903      3A253032 
 1903      643A2530 
 1903      32643A25 
 1903      3033640D 
ARM GAS  C:\Users\laure\AppData\Local\Temp\ccHaU8kd.s 			page 47


 1904 002a 0000     		.space	2
 1905              	.LC12:
 1906 002c 25732025 		.ascii	"%s %02d-%02d-%04d\015\012\000"
 1906      3032642D 
 1906      25303264 
 1906      2D253034 
 1906      640D0A00 
 1907              	.LC13:
 1908 0040 0D0A00   		.ascii	"\015\012\000"
 1909 0043 00       		.space	1
 1910              	.LC0:
 1911 0044 4D6F6E00 		.ascii	"Mon\000"
 1912              	.LC1:
 1913 0048 54756500 		.ascii	"Tue\000"
 1914              	.LC2:
 1915 004c 57656400 		.ascii	"Wed\000"
 1916              	.LC3:
 1917 0050 54687500 		.ascii	"Thu\000"
 1918              	.LC4:
 1919 0054 46726900 		.ascii	"Fri\000"
 1920              	.LC5:
 1921 0058 53617400 		.ascii	"Sat\000"
 1922              	.LC6:
 1923 005c 53756E00 		.ascii	"Sun\000"
 1924              		.bss
 1925              		.align	2
 1926              		.set	.LANCHOR0,. + 0
 1927              		.type	MS_CALIB_FLAG, %object
 1928              		.size	MS_CALIB_FLAG, 4
 1929              	MS_CALIB_FLAG:
 1930 0000 00000000 		.space	4
 1931              		.type	INCR_TIME_FLAG, %object
 1932              		.size	INCR_TIME_FLAG, 4
 1933              	INCR_TIME_FLAG:
 1934 0004 00000000 		.space	4
 1935              		.text
 1936              	.Letext0:
 1937              		.file 2 "d:\\applications\\cypress\\psoc creator\\4.4\\psoc creator\\import\\gnu\\arm\\5.4.1\\arm-
 1938              		.file 3 "d:\\applications\\cypress\\psoc creator\\4.4\\psoc creator\\import\\gnu\\arm\\5.4.1\\arm-
 1939              		.file 4 "Generated_Source\\PSoC5/cytypes.h"
 1940              		.file 5 "..\\Schakelklok.cydsn\\Schakelklok_types.h"
 1941              		.file 6 "Generated_Source\\PSoC5/core_cm3.h"
 1942              		.file 7 "Generated_Source\\PSoC5/MILLIS_COUNTER_CAPT_INT.h"
 1943              		.file 8 "Generated_Source\\PSoC5/SEC_CTR_TC_INT.h"
 1944              		.file 9 "Generated_Source\\PSoC5/MILLIS_COUNTER.h"
 1945              		.file 10 "d:\\applications\\cypress\\psoc creator\\4.4\\psoc creator\\import\\gnu\\arm\\5.4.1\\arm
 1946              		.file 11 "Generated_Source\\PSoC5/USBUART_cdc.h"
 1947              		.file 12 "Generated_Source\\PSoC5/CTR_SYNC_EN.h"
 1948              		.file 13 "Generated_Source\\PSoC5/CyLib.h"
 1949              		.file 14 "Generated_Source\\PSoC5/I2C.h"
 1950              		.file 15 "Generated_Source\\PSoC5/SEC_COUNTER.h"
 1951              		.file 16 "Generated_Source\\PSoC5/RTC_SEC_COUNTER.h"
 1952              		.file 17 "Generated_Source\\PSoC5/MILLIS_CTR_CAPTSEL.h"
 1953              		.file 18 "Generated_Source\\PSoC5/DebugLED.h"
 1954              		.file 19 "Generated_Source\\PSoC5/USBUART.h"